
kernel/v8/kernel.riscv:     file format elf32-littleriscv


Disassembly of section .text.dram:

00000000 <_start>:
# MBT modified for bsg_manycore

.section .crtbegin,"a"
  .globl _start
_start:
  li  x1, 0
       0:	00000093          	li	x1,0
  // li  x2, 0
  li  x3, 0
       4:	00000193          	li	x3,0
  li  x4, 0
       8:	00000213          	li	x4,0
  li  x5, 0
       c:	00000293          	li	x5,0
  li  x6, 0
      10:	00000313          	li	x6,0
  li  x7, 0
      14:	00000393          	li	x7,0
  li  x8, 0
      18:	00000413          	li	x8,0
  li  x9, 0
      1c:	00000493          	li	x9,0
  li  x10,0
      20:	00000513          	li	x10,0
  li  x11,0
      24:	00000593          	li	x11,0
  li  x12,0
      28:	00000613          	li	x12,0
  li  x13,0
      2c:	00000693          	li	x13,0
  li  x14,0
      30:	00000713          	li	x14,0
  li  x15,0
      34:	00000793          	li	x15,0
  li  x16,0
      38:	00000813          	li	x16,0
  li  x17,0
      3c:	00000893          	li	x17,0
  li  x18,0
      40:	00000913          	li	x18,0
  li  x19,0
      44:	00000993          	li	x19,0
  li  x20,0
      48:	00000a13          	li	x20,0
  li  x21,0
      4c:	00000a93          	li	x21,0
  li  x22,0
      50:	00000b13          	li	x22,0
  li  x23,0
      54:	00000b93          	li	x23,0
  li  x24,0
      58:	00000c13          	li	x24,0
  li  x25,0
      5c:	00000c93          	li	x25,0
  li  x26,0
      60:	00000d13          	li	x26,0
  li  x27,0
      64:	00000d93          	li	x27,0
  li  x28,0
      68:	00000e13          	li	x28,0
  li  x29,0
      6c:	00000e93          	li	x29,0
  li  x30,0
      70:	00000f13          	li	x30,0
  li  x31,0
      74:	00000f93          	li	x31,0
  # Enable FPU and clear fcsr.
  #
  # These are ignored by manycore hardware but might be
  # required by execution environments supporting 
  # exceptions (such as Spike).
  li t0, 0x00003000 # mstatus.FS
      78:	000032b7          	lui	x5,0x3
  csrs mstatus, t0 # enable FPU
      7c:	3002a073          	csrs	mstatus,x5
  fscsr x0
      80:	00301073          	fscsr	x0
  li t0, 0
      84:	00000293          	li	x5,0

  fcvt.s.w f0, x0 
      88:	d0007053          	fcvt.s.w	f0,x0
  fcvt.s.w f1, x0 
      8c:	d00070d3          	fcvt.s.w	f1,x0
  fcvt.s.w f2, x0 
      90:	d0007153          	fcvt.s.w	f2,x0
  fcvt.s.w f3, x0 
      94:	d00071d3          	fcvt.s.w	f3,x0
  fcvt.s.w f4, x0 
      98:	d0007253          	fcvt.s.w	f4,x0
  fcvt.s.w f5, x0 
      9c:	d00072d3          	fcvt.s.w	f5,x0
  fcvt.s.w f6, x0 
      a0:	d0007353          	fcvt.s.w	f6,x0
  fcvt.s.w f7, x0 
      a4:	d00073d3          	fcvt.s.w	f7,x0
  fcvt.s.w f8, x0 
      a8:	d0007453          	fcvt.s.w	f8,x0
  fcvt.s.w f9, x0 
      ac:	d00074d3          	fcvt.s.w	f9,x0
  fcvt.s.w f10,x0 
      b0:	d0007553          	fcvt.s.w	f10,x0
  fcvt.s.w f11,x0 
      b4:	d00075d3          	fcvt.s.w	f11,x0
  fcvt.s.w f12,x0 
      b8:	d0007653          	fcvt.s.w	f12,x0
  fcvt.s.w f13,x0 
      bc:	d00076d3          	fcvt.s.w	f13,x0
  fcvt.s.w f14,x0 
      c0:	d0007753          	fcvt.s.w	f14,x0
  fcvt.s.w f15,x0 
      c4:	d00077d3          	fcvt.s.w	f15,x0
  fcvt.s.w f16,x0 
      c8:	d0007853          	fcvt.s.w	f16,x0
  fcvt.s.w f17,x0 
      cc:	d00078d3          	fcvt.s.w	f17,x0
  fcvt.s.w f18,x0 
      d0:	d0007953          	fcvt.s.w	f18,x0
  fcvt.s.w f19,x0 
      d4:	d00079d3          	fcvt.s.w	f19,x0
  fcvt.s.w f20,x0 
      d8:	d0007a53          	fcvt.s.w	f20,x0
  fcvt.s.w f21,x0 
      dc:	d0007ad3          	fcvt.s.w	f21,x0
  fcvt.s.w f22,x0 
      e0:	d0007b53          	fcvt.s.w	f22,x0
  fcvt.s.w f23,x0 
      e4:	d0007bd3          	fcvt.s.w	f23,x0
  fcvt.s.w f24,x0 
      e8:	d0007c53          	fcvt.s.w	f24,x0
  fcvt.s.w f25,x0 
      ec:	d0007cd3          	fcvt.s.w	f25,x0
  fcvt.s.w f26,x0 
      f0:	d0007d53          	fcvt.s.w	f26,x0
  fcvt.s.w f27,x0 
      f4:	d0007dd3          	fcvt.s.w	f27,x0
  fcvt.s.w f28,x0 
      f8:	d0007e53          	fcvt.s.w	f28,x0
  fcvt.s.w f29,x0 
      fc:	d0007ed3          	fcvt.s.w	f29,x0
  fcvt.s.w f30,x0 
     100:	d0007f53          	fcvt.s.w	f30,x0
  fcvt.s.w f31,x0 
     104:	d0007fd3          	fcvt.s.w	f31,x0



  # initialize global pointer
  la gp, _gp
     108:	00001197          	auipc	x3,0x1
     10c:	6f818193          	addi	x3,x3,1784 # 1800 <_gp>

  la  tp, _bsg_data_end_addr + 63
     110:	00001217          	auipc	x4,0x1
     114:	43b20213          	addi	x4,x4,1083 # 154b <_bsg_data_end_addr+0x3f>
  and tp, tp, -64
     118:	fc027213          	andi	x4,x4,-64

  # mbt: put stack at top of local memory
  # mbt fix for 4KB IMEM / 4KB DMEM
  la sp, _sp
     11c:	00002117          	auipc	x2,0x2
     120:	ee010113          	addi	x2,x2,-288 # 1ffc <_bsg_elf_stack_ptr>
  lw a1, -4(sp)    # argv
  li a2, 0         # envp = NULL
  call main
  tail exit
#else
  j main
     124:	7bc0106f          	j	18e0 <main>
#endif

2:
  # Should never this point
  j 2b
     128:	0000006f          	j	128 <bsg_group_size+0x127>

0000012c <write_finish_signal>:



int write_finish_signal () 
{
  if (__bsg_id == 0) 
     12c:	000017b7          	lui	x15,0x1
     130:	01c7a783          	lw	x15,28(x15) # 101c <__bsg_id>
     134:	00079c63          	bnez	x15,14c <write_finish_signal+0x20>
  {
     int *signal_ptr = (int *) cuda_finish_signal_addr; 
     *signal_ptr = cuda_finish_signal_val;     
     138:	000017b7          	lui	x15,0x1
     13c:	00001737          	lui	x14,0x1
     140:	0307a783          	lw	x15,48(x15) # 1030 <cuda_finish_signal_addr>
     144:	02c72703          	lw	x14,44(x14) # 102c <cuda_finish_signal_val>
     148:	00e7a023          	sw	x14,0(x15)
  }
}
     14c:	00008067          	ret

00000150 <bsg_set_tile_x_y>:

  bsg_remote_int_ptr grp_org_x_p;
  bsg_remote_int_ptr grp_org_y_p;

  // everybody stores to tile 0,0
  bsg_remote_store(0,0,bsg_x_v,0);
     150:	00001737          	lui	x14,0x1
     154:	200007b7          	lui	x15,0x20000
     158:	02470593          	addi	x11,x14,36 # 1024 <__bsg_x>
  bsg_remote_store(0,0,bsg_y_v,0);
     15c:	000016b7          	lui	x13,0x1
  bsg_remote_store(0,0,bsg_x_v,0);
     160:	00b7e5b3          	or	x11,x15,x11
  bsg_remote_store(0,0,bsg_y_v,0);
     164:	02068613          	addi	x12,x13,32 # 1020 <__bsg_y>
  bsg_remote_store(0,0,bsg_x_v,0);
     168:	0005a023          	sw	x0,0(x11)
  bsg_remote_store(0,0,bsg_y_v,0);
     16c:	00c7e633          	or	x12,x15,x12
     170:	00062023          	sw	x0,0(x12)

  bsg_wait_while(*bsg_x_v < 0);
     174:	02472783          	lw	x15,36(x14)
     178:	fe07cee3          	bltz	x15,174 <bsg_set_tile_x_y+0x24>
  bsg_wait_while(*bsg_y_v < 0);
     17c:	0206a783          	lw	x15,32(x13)
     180:	fe07cee3          	bltz	x15,17c <bsg_set_tile_x_y+0x2c>

  if (!*bsg_x_v && !*bsg_y_v)
     184:	02472783          	lw	x15,36(x14)
     188:	00079a63          	bnez	x15,19c <bsg_set_tile_x_y+0x4c>
     18c:	0206a783          	lw	x15,32(x13)
     190:	00079663          	bnez	x15,19c <bsg_set_tile_x_y+0x4c>
    for (int x = 0; x < bsg_tiles_X; x++)
      for (int y = 0; y < bsg_tiles_Y; y++)
      {
        bsg_remote_store(x,y,bsg_x_v,x);
     194:	0005a023          	sw	x0,0(x11)
        bsg_remote_store(x,y,bsg_y_v,y);
     198:	00062023          	sw	x0,0(x12)
      }

  grp_org_x_p = bsg_remote_ptr_control( __bsg_x, __bsg_y, CSR_TGO_X );
     19c:	02472583          	lw	x11,36(x14)
     1a0:	0206a683          	lw	x13,32(x13)
     1a4:	20020737          	lui	x14,0x20020
     1a8:	01259613          	slli	x12,x11,0x12
     1ac:	01869793          	slli	x15,x13,0x18
     1b0:	00c7e7b3          	or	x15,x15,x12
     1b4:	00470613          	addi	x12,x14,4 # 20020004 <_bsg_elf_vcache_size+0x20000004>
     1b8:	00c7e633          	or	x12,x15,x12
  grp_org_y_p = bsg_remote_ptr_control( __bsg_x, __bsg_y, CSR_TGO_Y );

  __bsg_grp_org_x  = * grp_org_x_p;
     1bc:	00062603          	lw	x12,0(x12)
  grp_org_y_p = bsg_remote_ptr_control( __bsg_x, __bsg_y, CSR_TGO_Y );
     1c0:	00870713          	addi	x14,x14,8
     1c4:	00e7e7b3          	or	x15,x15,x14
  __bsg_grp_org_x  = * grp_org_x_p;
     1c8:	00001737          	lui	x14,0x1
     1cc:	00c72c23          	sw	x12,24(x14) # 1018 <__bsg_grp_org_x>
  __bsg_grp_org_y  = * grp_org_y_p;
     1d0:	0007a603          	lw	x12,0(x15) # 20000000 <_bsg_elf_vcache_size+0x1ffe0000>
     1d4:	00001737          	lui	x14,0x1
  __bsg_id = __bsg_y * bsg_tiles_X + __bsg_x;
     1d8:	00b686b3          	add	x13,x13,x11
  __bsg_grp_org_y  = * grp_org_y_p;
     1dc:	00c72a23          	sw	x12,20(x14) # 1014 <__bsg_grp_org_y>
  __bsg_id = __bsg_y * bsg_tiles_X + __bsg_x;
     1e0:	00001737          	lui	x14,0x1
  __bsg_grid_dim_x = 1;
     1e4:	00100793          	li	x15,1
  __bsg_id = __bsg_y * bsg_tiles_X + __bsg_x;
     1e8:	00d72e23          	sw	x13,28(x14) # 101c <__bsg_id>
  __bsg_grid_dim_x = 1;
     1ec:	00001737          	lui	x14,0x1
     1f0:	00f72823          	sw	x15,16(x14) # 1010 <__bsg_grid_dim_x>
  __bsg_grid_dim_y = 1;
     1f4:	00001737          	lui	x14,0x1
     1f8:	00f72623          	sw	x15,12(x14) # 100c <__bsg_grid_dim_y>
  __bsg_tile_group_id_x = 0;
     1fc:	000017b7          	lui	x15,0x1
     200:	0007a423          	sw	x0,8(x15) # 1008 <__bsg_tile_group_id_x>
  __bsg_tile_group_id_y = 0;
     204:	000017b7          	lui	x15,0x1
     208:	0007a223          	sw	x0,4(x15) # 1004 <__bsg_tile_group_id_y>
  __bsg_tile_group_id = 0;
     20c:	000017b7          	lui	x15,0x1
     210:	0007a023          	sw	x0,0(x15) # 1000 <_bsg_data_start_addr>
}
     214:	00008067          	ret

00000218 <number>:
  while (is_digit(**s)) i = i*10 + *((*s)++) - '0';
  return i;
}

static char *number(char *str, long num, int base, int size, int precision, int type)
{
     218:	fa010113          	addi	x2,x2,-96
     21c:	04812e23          	sw	x8,92(x2)
     220:	04912c23          	sw	x9,88(x2)
  char c, sign, tmp[66];
  char *dig = digits;
  int i;

  if (type & UPPERCASE)  dig = upper_digits;
     224:	0407f813          	andi	x16,x15,64
     228:	1c080063          	beqz	x16,3e8 <number+0x1d0>
     22c:	81000eb7          	lui	x29,0x81000
  if (type & LEFT) type &= ~ZEROPAD;
     230:	0107f293          	andi	x5,x15,16
  if (type & UPPERCASE)  dig = upper_digits;
     234:	028e8e93          	addi	x29,x29,40 # 81000028 <_end+0xffffffd0>
  if (type & LEFT) type &= ~ZEROPAD;
     238:	1c028063          	beqz	x5,3f8 <number+0x1e0>
     23c:	ffe7f793          	andi	x15,x15,-2
     240:	00028413          	mv	x8,x5
  if (base < 2 || base > 36) return 0;
  
  c = (type & ZEROPAD) ? '0' : ' ';
  sign = 0;
  if (type & SIGN)
     244:	0027f813          	andi	x16,x15,2
  c = (type & ZEROPAD) ? '0' : ' ';
     248:	02000f93          	li	x31,32
  if (type & SIGN)
     24c:	0207f393          	andi	x7,x15,32
     250:	1c080263          	beqz	x16,414 <number+0x1fc>
  {
    if (num < 0)
     254:	1c05c463          	bltz	x11,41c <number+0x204>
    {
      sign = '-';
      num = -num;
      size--;
    }
    else if (type & PLUS)
     258:	0047f813          	andi	x16,x15,4
     25c:	20081263          	bnez	x16,460 <number+0x248>
    {
      sign = '+';
      size--;
    }
    else if (type & SPACE)
     260:	0087f793          	andi	x15,x15,8
  sign = 0;
     264:	00000493          	li	x9,0
    else if (type & SPACE)
     268:	00078663          	beqz	x15,274 <number+0x5c>
    {
      sign = ' ';
      size--;
     26c:	fff68693          	addi	x13,x13,-1
      sign = ' ';
     270:	02000493          	li	x9,32
    }
  }

  if (type & HEX_PREP)
     274:	00038c63          	beqz	x7,28c <number+0x74>
  {
    if (base == 16)
     278:	01000793          	li	x15,16
     27c:	20f60463          	beq	x12,x15,484 <number+0x26c>
      size -= 2;
    else if (base == 8)
      size--;
     280:	ff860793          	addi	x15,x12,-8
     284:	0017b793          	seqz	x15,x15
     288:	40f686b3          	sub	x13,x13,x15
  }

  i = 0;

  if (num == 0)
     28c:	1a059063          	bnez	x11,42c <number+0x214>
    tmp[i++] = '0';
     290:	03000793          	li	x15,48
     294:	00f10623          	sb	x15,12(x2)
     298:	00000893          	li	x17,0
     29c:	03000813          	li	x16,48
     2a0:	00100f13          	li	x30,1
     2a4:	00c10793          	addi	x15,x2,12
      tmp[i++] = dig[((unsigned long) num) % (unsigned) base];
      num = ((unsigned long) num) / (unsigned) base;
    }
  }

  if (i > precision) precision = i;
     2a8:	000f0e13          	mv	x28,x30
     2ac:	00ef5463          	bge	x30,x14,2b4 <number+0x9c>
     2b0:	00070e13          	mv	x28,x14
  size -= precision;
     2b4:	41c68333          	sub	x6,x13,x28
  if (!(type & (ZEROPAD | LEFT))) while (size-- > 0) *str++ = ' ';
     2b8:	fff30593          	addi	x11,x6,-1
     2bc:	02041263          	bnez	x8,2e0 <number+0xc8>
     2c0:	006506b3          	add	x13,x10,x6
     2c4:	02000713          	li	x14,32
     2c8:	1c605e63          	blez	x6,4a4 <number+0x28c>
     2cc:	00150513          	addi	x10,x10,1
     2d0:	fee50fa3          	sb	x14,-1(x10)
     2d4:	fed51ce3          	bne	x10,x13,2cc <number+0xb4>
     2d8:	ffe00593          	li	x11,-2
     2dc:	fff00313          	li	x6,-1
  if (sign) *str++ = sign;
     2e0:	00048663          	beqz	x9,2ec <number+0xd4>
     2e4:	00950023          	sb	x9,0(x10)
     2e8:	00150513          	addi	x10,x10,1
  
  if (type & HEX_PREP)
     2ec:	00038a63          	beqz	x7,300 <number+0xe8>
  {
    if (base == 8)
     2f0:	00800713          	li	x14,8
     2f4:	18e60c63          	beq	x12,x14,48c <number+0x274>
      *str++ = '0';
    else if (base == 16)
     2f8:	01000713          	li	x14,16
     2fc:	16e60863          	beq	x12,x14,46c <number+0x254>
      *str++ = '0';
      *str++ = digits[33];
    }
  }

  if (!(type & LEFT)) while (size-- > 0) *str++ = c;
     300:	04029463          	bnez	x5,348 <number+0x130>
     304:	00050613          	mv	x12,x10
     308:	00100713          	li	x14,1
     30c:	1a605463          	blez	x6,4b4 <number+0x29c>
     310:	00160613          	addi	x12,x12,1
     314:	40c706b3          	sub	x13,x14,x12
     318:	00b686b3          	add	x13,x13,x11
     31c:	00d506b3          	add	x13,x10,x13
     320:	fff60fa3          	sb	x31,-1(x12)
     324:	fed046e3          	bgtz	x13,310 <number+0xf8>
     328:	fff5c713          	not	x14,x11
     32c:	41f75713          	srai	x14,x14,0x1f
     330:	00e5f733          	and	x14,x11,x14
     334:	fff58593          	addi	x11,x11,-1
     338:	40e58333          	sub	x6,x11,x14
     33c:	00170713          	addi	x14,x14,1
     340:	00e50533          	add	x10,x10,x14
     344:	fff30593          	addi	x11,x6,-1
  while (i < precision--) *str++ = '0';
     348:	41ee0733          	sub	x14,x28,x30
     34c:	00e50733          	add	x14,x10,x14
     350:	03000693          	li	x13,48
     354:	15cf5463          	bge	x30,x28,49c <number+0x284>
     358:	00150513          	addi	x10,x10,1
     35c:	fed50fa3          	sb	x13,-1(x10)
     360:	fea71ce3          	bne	x14,x10,358 <number+0x140>
  while (i-- > 0) *str++ = tmp[i];
     364:	01178633          	add	x12,x15,x17
  while (i < precision--) *str++ = '0';
     368:	00070693          	mv	x13,x14
  while (i-- > 0) *str++ = tmp[i];
     36c:	00100513          	li	x10,1
     370:	0080006f          	j	378 <number+0x160>
     374:	00064803          	lbu	x16,0(x12)
     378:	00168693          	addi	x13,x13,1
     37c:	40d507b3          	sub	x15,x10,x13
     380:	011787b3          	add	x15,x15,x17
     384:	00f707b3          	add	x15,x14,x15
     388:	ff068fa3          	sb	x16,-1(x13)
     38c:	fff60613          	addi	x12,x12,-1
     390:	fef042e3          	bgtz	x15,374 <number+0x15c>
     394:	00188513          	addi	x10,x17,1 # 9981489 <_bsg_elf_vcache_size+0x9961489>
     398:	00a70533          	add	x10,x14,x10
  while (size-- > 0) *str++ = ' ';
     39c:	02605e63          	blez	x6,3d8 <number+0x1c0>
  while (i-- > 0) *str++ = tmp[i];
     3a0:	00050713          	mv	x14,x10
  while (size-- > 0) *str++ = ' ';
     3a4:	02000613          	li	x12,32
     3a8:	00100693          	li	x13,1
     3ac:	00170713          	addi	x14,x14,1
     3b0:	40e687b3          	sub	x15,x13,x14
     3b4:	00b787b3          	add	x15,x15,x11
     3b8:	00f507b3          	add	x15,x10,x15
     3bc:	fec70fa3          	sb	x12,-1(x14)
     3c0:	fef046e3          	bgtz	x15,3ac <number+0x194>
     3c4:	fff5c793          	not	x15,x11
     3c8:	41f7d793          	srai	x15,x15,0x1f
     3cc:	00f5f5b3          	and	x11,x11,x15
     3d0:	00158593          	addi	x11,x11,1
     3d4:	00b50533          	add	x10,x10,x11

  return str;
}
     3d8:	05c12403          	lw	x8,92(x2)
     3dc:	05812483          	lw	x9,88(x2)
     3e0:	06010113          	addi	x2,x2,96
     3e4:	00008067          	ret
  char *dig = digits;
     3e8:	81000eb7          	lui	x29,0x81000
  if (type & LEFT) type &= ~ZEROPAD;
     3ec:	0107f293          	andi	x5,x15,16
  char *dig = digits;
     3f0:	000e8e93          	mv	x29,x29
  if (type & LEFT) type &= ~ZEROPAD;
     3f4:	e40294e3          	bnez	x5,23c <number+0x24>
  c = (type & ZEROPAD) ? '0' : ' ';
     3f8:	0017f813          	andi	x16,x15,1
     3fc:	0117f413          	andi	x8,x15,17
     400:	03000f93          	li	x31,48
     404:	e40800e3          	beqz	x16,244 <number+0x2c>
  if (type & SIGN)
     408:	0027f813          	andi	x16,x15,2
     40c:	0207f393          	andi	x7,x15,32
     410:	e40812e3          	bnez	x16,254 <number+0x3c>
  sign = 0;
     414:	00000493          	li	x9,0
     418:	e5dff06f          	j	274 <number+0x5c>
      num = -num;
     41c:	40b005b3          	neg	x11,x11
      size--;
     420:	fff68693          	addi	x13,x13,-1
      sign = '-';
     424:	02d00493          	li	x9,45
  if (type & HEX_PREP)
     428:	e40398e3          	bnez	x7,278 <number+0x60>
  if (base < 2 || base > 36) return 0;
     42c:	00000f13          	li	x30,0
     430:	00c10793          	addi	x15,x2,12
      tmp[i++] = dig[((unsigned long) num) % (unsigned) base];
     434:	02c5f833          	remu	x16,x11,x12
     438:	000f0893          	mv	x17,x30
     43c:	001f0f13          	addi	x30,x30,1
     440:	01e78e33          	add	x28,x15,x30
     444:	00058313          	mv	x6,x11
     448:	010e8833          	add	x16,x29,x16
     44c:	00084803          	lbu	x16,0(x16)
      num = ((unsigned long) num) / (unsigned) base;
     450:	02c5d5b3          	divu	x11,x11,x12
      tmp[i++] = dig[((unsigned long) num) % (unsigned) base];
     454:	ff0e0fa3          	sb	x16,-1(x28)
    while (num != 0)
     458:	fcc37ee3          	bgeu	x6,x12,434 <number+0x21c>
     45c:	e4dff06f          	j	2a8 <number+0x90>
      size--;
     460:	fff68693          	addi	x13,x13,-1
      sign = '+';
     464:	02b00493          	li	x9,43
     468:	e0dff06f          	j	274 <number+0x5c>
      *str++ = '0';
     46c:	03000713          	li	x14,48
     470:	00e50023          	sb	x14,0(x10)
      *str++ = digits[33];
     474:	07800713          	li	x14,120
     478:	00e500a3          	sb	x14,1(x10)
     47c:	00250513          	addi	x10,x10,2
     480:	e81ff06f          	j	300 <number+0xe8>
      size -= 2;
     484:	ffe68693          	addi	x13,x13,-2
     488:	e05ff06f          	j	28c <number+0x74>
      *str++ = '0';
     48c:	03000713          	li	x14,48
     490:	00e50023          	sb	x14,0(x10)
     494:	00150513          	addi	x10,x10,1
     498:	e69ff06f          	j	300 <number+0xe8>
  while (i < precision--) *str++ = '0';
     49c:	00050713          	mv	x14,x10
     4a0:	ec5ff06f          	j	364 <number+0x14c>
     4a4:	ffe30713          	addi	x14,x6,-2
  if (!(type & (ZEROPAD | LEFT))) while (size-- > 0) *str++ = ' ';
     4a8:	00058313          	mv	x6,x11
     4ac:	00070593          	mv	x11,x14
     4b0:	e31ff06f          	j	2e0 <number+0xc8>
  if (!(type & LEFT)) while (size-- > 0) *str++ = c;
     4b4:	00058313          	mv	x6,x11
     4b8:	fff58593          	addi	x11,x11,-1
     4bc:	e8dff06f          	j	348 <number+0x130>

000004c0 <uart_send_char>:
  return str - buf;
}

void uart_send_char(char c) {

bsg_putchar( c );
     4c0:	4000f7b7          	lui	x15,0x4000f
     4c4:	aca78e23          	sb	x10,-1316(x15) # 4000eadc <_bsg_elf_vcache_size+0x3ffeeadc>

}
     4c8:	00008067          	ret

000004cc <bsg_printf>:

int bsg_printf(const char *fmt, ...)
{
     4cc:	e9010113          	addi	x2,x2,-368
     4d0:	13312e23          	sw	x19,316(x2)
     4d4:	14112623          	sw	x1,332(x2)
     4d8:	14812423          	sw	x8,328(x2)
     4dc:	14912223          	sw	x9,324(x2)
     4e0:	15212023          	sw	x18,320(x2)
     4e4:	13412c23          	sw	x20,312(x2)
     4e8:	13512a23          	sw	x21,308(x2)
     4ec:	13612823          	sw	x22,304(x2)
     4f0:	13712623          	sw	x23,300(x2)
     4f4:	13812423          	sw	x24,296(x2)
     4f8:	13912223          	sw	x25,292(x2)
     4fc:	14b12a23          	sw	x11,340(x2)
     500:	14c12c23          	sw	x12,344(x2)
     504:	14d12e23          	sw	x13,348(x2)
     508:	16e12023          	sw	x14,352(x2)
     50c:	16f12223          	sw	x15,356(x2)
     510:	17012423          	sw	x16,360(x2)
     514:	17112623          	sw	x17,364(x2)
  for (str = buf; *fmt; fmt++)
     518:	00054783          	lbu	x15,0(x10)
  char buf[256],*p;
  va_list args;
  int n=0;

  va_start(args, fmt);
     51c:	15410993          	addi	x19,x2,340
     520:	01312223          	sw	x19,4(x2)
  for (str = buf; *fmt; fmt++)
     524:	76078463          	beqz	x15,c8c <bsg_printf+0x7c0>
     528:	02010913          	addi	x18,x2,32
     52c:	00001ab7          	lui	x21,0x1
     530:	00001a37          	lui	x20,0x1
     534:	81000437          	lui	x8,0x81000
     538:	00050313          	mv	x6,x10
     53c:	040a8a93          	addi	x21,x21,64 # 1040 <_tls_data>
     540:	00090513          	mv	x10,x18
     544:	084a0a13          	addi	x20,x20,132 # 1084 <_tls_data+0x44>
     548:	00040413          	mv	x8,x8
    if (*fmt != '%')
     54c:	02500713          	li	x14,37
     550:	08e78a63          	beq	x15,x14,5e4 <bsg_printf+0x118>
      *str++ = *fmt;
     554:	00f50023          	sb	x15,0(x10)
      continue;
     558:	00134783          	lbu	x15,1(x6)
      *str++ = *fmt;
     55c:	00150513          	addi	x10,x10,1
      continue;
     560:	00130313          	addi	x6,x6,1
  for (str = buf; *fmt; fmt++)
     564:	fe0794e3          	bnez	x15,54c <bsg_printf+0x80>
  *str = '\0';
     568:	00050023          	sb	x0,0(x10)
    bsg_mutex_status result = bsg_mutex_lock_fail;

    unsigned int mutex_addr = (unsigned int) ( p_mutex );
    unsigned int swap_val = 1;

    asm volatile ("amoswap.w.aq %[result], %[swap_val], 0(%[addr]);"  \
     56c:	400006b7          	lui	x13,0x40000
     570:	00100793          	li	x15,1
     574:	0cf6a72f          	amoswap.w.aq	x14,x15,(x13)
static void inline bsg_mutex_lock( bsg_mutex_ptr  p_mutex ){
    int result = bsg_mutex_lock_fail;
    do{
       result =  bsg_mutex_try_lock( p_mutex );

    }while( result == bsg_mutex_lock_fail);
     578:	fef70ee3          	beq	x14,x15,574 <bsg_printf+0xa8>
  ee_vsprintf(buf, fmt, args);
  va_end(args);
  p=buf;
 
  bsg_mutex_lock( io_mutex_ptr );
  while (*p) {
     57c:	02014703          	lbu	x14,32(x2)
     580:	70070263          	beqz	x14,c84 <bsg_printf+0x7b8>
     584:	00100693          	li	x13,1
  p=buf;
     588:	00090793          	mv	x15,x18
bsg_putchar( c );
     58c:	4000f637          	lui	x12,0x4000f
     590:	412686b3          	sub	x13,x13,x18
     594:	ace60e23          	sb	x14,-1316(x12) # 4000eadc <_bsg_elf_vcache_size+0x3ffeeadc>
  while (*p) {
     598:	0017c703          	lbu	x14,1(x15)
     59c:	00d78533          	add	x10,x15,x13
	uart_send_char(*p);
	n++;
	p++;
     5a0:	00178793          	addi	x15,x15,1
  while (*p) {
     5a4:	fe0718e3          	bnez	x14,594 <bsg_printf+0xc8>
static void inline bsg_mutex_unlock( bsg_mutex_ptr  p_mutex ){


    unsigned int mutex_addr = (unsigned int) ( p_mutex );

    asm volatile ("amoswap.w.rl x0, x0, 0(%[addr]);"   \
     5a8:	400007b7          	lui	x15,0x40000
     5ac:	0a07a02f          	amoswap.w.rl	x0,x0,(x15)
  }
  bsg_mutex_unlock( io_mutex_ptr );

  return n;
}
     5b0:	14c12083          	lw	x1,332(x2)
     5b4:	14812403          	lw	x8,328(x2)
     5b8:	14412483          	lw	x9,324(x2)
     5bc:	14012903          	lw	x18,320(x2)
     5c0:	13c12983          	lw	x19,316(x2)
     5c4:	13812a03          	lw	x20,312(x2)
     5c8:	13412a83          	lw	x21,308(x2)
     5cc:	13012b03          	lw	x22,304(x2)
     5d0:	12c12b83          	lw	x23,300(x2)
     5d4:	12812c03          	lw	x24,296(x2)
     5d8:	12412c83          	lw	x25,292(x2)
     5dc:	17010113          	addi	x2,x2,368
     5e0:	00008067          	ret
    flags = 0;
     5e4:	00000793          	li	x15,0
     5e8:	01000693          	li	x13,16
    switch (*fmt)
     5ec:	00134583          	lbu	x11,1(x6)
    fmt++; // This also skips first '%'
     5f0:	00130493          	addi	x9,x6,1
    switch (*fmt)
     5f4:	fe058713          	addi	x14,x11,-32
     5f8:	0ff77713          	andi	x14,x14,255
     5fc:	00e6ea63          	bltu	x13,x14,610 <bsg_printf+0x144>
     600:	00271713          	slli	x14,x14,0x2
     604:	01570733          	add	x14,x14,x21
     608:	00072703          	lw	x14,0(x14)
     60c:	00070067          	jr	x14
    if (is_digit(*fmt))
     610:	fd058713          	addi	x14,x11,-48
     614:	0ff77713          	andi	x14,x14,255
     618:	00900693          	li	x13,9
     61c:	10e6f463          	bgeu	x13,x14,724 <bsg_printf+0x258>
    else if (*fmt == '*')
     620:	02a00713          	li	x14,42
    field_width = -1;
     624:	fff00693          	li	x13,-1
    else if (*fmt == '*')
     628:	12e58863          	beq	x11,x14,758 <bsg_printf+0x28c>
    if (*fmt == '.')
     62c:	02e00613          	li	x12,46
    precision = -1;
     630:	fff00713          	li	x14,-1
    if (*fmt == '.')
     634:	0cc58263          	beq	x11,x12,6f8 <bsg_printf+0x22c>
    if (*fmt == 'l' || *fmt == 'L')
     638:	0df5f613          	andi	x12,x11,223
     63c:	04c00813          	li	x16,76
     640:	07060063          	beq	x12,x16,6a0 <bsg_printf+0x1d4>
    switch (*fmt)
     644:	fbf58613          	addi	x12,x11,-65
     648:	0ff67613          	andi	x12,x12,255
     64c:	03700813          	li	x16,55
     650:	08c86463          	bltu	x16,x12,6d8 <bsg_printf+0x20c>
     654:	00261613          	slli	x12,x12,0x2
     658:	01460633          	add	x12,x12,x20
     65c:	00062603          	lw	x12,0(x12)
     660:	00060067          	jr	x12
      case '0': flags |= ZEROPAD; goto repeat;
     664:	0017e793          	ori	x15,x15,1
  for (str = buf; *fmt; fmt++)
     668:	00048313          	mv	x6,x9
     66c:	f81ff06f          	j	5ec <bsg_printf+0x120>
      case '-': flags |= LEFT; goto repeat;
     670:	0107e793          	ori	x15,x15,16
  for (str = buf; *fmt; fmt++)
     674:	00048313          	mv	x6,x9
     678:	f75ff06f          	j	5ec <bsg_printf+0x120>
      case '+': flags |= PLUS; goto repeat;
     67c:	0047e793          	ori	x15,x15,4
  for (str = buf; *fmt; fmt++)
     680:	00048313          	mv	x6,x9
     684:	f69ff06f          	j	5ec <bsg_printf+0x120>
      case '#': flags |= HEX_PREP; goto repeat;
     688:	0207e793          	ori	x15,x15,32
  for (str = buf; *fmt; fmt++)
     68c:	00048313          	mv	x6,x9
     690:	f5dff06f          	j	5ec <bsg_printf+0x120>
      case ' ': flags |= SPACE; goto repeat;
     694:	0087e793          	ori	x15,x15,8
  for (str = buf; *fmt; fmt++)
     698:	00048313          	mv	x6,x9
     69c:	f51ff06f          	j	5ec <bsg_printf+0x120>
    switch (*fmt)
     6a0:	0014c803          	lbu	x16,1(x9)
     6a4:	03700893          	li	x17,55
      fmt++;
     6a8:	00148313          	addi	x6,x9,1
    switch (*fmt)
     6ac:	fbf80613          	addi	x12,x16,-65
     6b0:	0ff67613          	andi	x12,x12,255
     6b4:	00c8ee63          	bltu	x17,x12,6d0 <bsg_printf+0x204>
     6b8:	000018b7          	lui	x17,0x1
     6bc:	00261613          	slli	x12,x12,0x2
     6c0:	16488893          	addi	x17,x17,356 # 1164 <kernel_matrix_multiply_int16+0x4>
     6c4:	01160633          	add	x12,x12,x17
     6c8:	00062603          	lw	x12,0(x12)
     6cc:	00060067          	jr	x12
     6d0:	00080593          	mv	x11,x16
      fmt++;
     6d4:	00030493          	mv	x9,x6
        if (*fmt != '%') *str++ = '%';
     6d8:	02500713          	li	x14,37
     6dc:	00150793          	addi	x15,x10,1
     6e0:	54e58463          	beq	x11,x14,c28 <bsg_printf+0x75c>
     6e4:	00e50023          	sb	x14,0(x10)
        if (*fmt)
     6e8:	0004c703          	lbu	x14,0(x9)
     6ec:	62071863          	bnez	x14,d1c <bsg_printf+0x850>
        if (*fmt != '%') *str++ = '%';
     6f0:	00078513          	mv	x10,x15
     6f4:	e75ff06f          	j	568 <bsg_printf+0x9c>
      if (is_digit(*fmt))
     6f8:	0014c583          	lbu	x11,1(x9)
     6fc:	00900613          	li	x12,9
      ++fmt;    
     700:	00148813          	addi	x16,x9,1
      if (is_digit(*fmt))
     704:	fd058713          	addi	x14,x11,-48
     708:	0ff77713          	andi	x14,x14,255
     70c:	4ae67463          	bgeu	x12,x14,bb4 <bsg_printf+0x6e8>
      else if (*fmt == '*')
     710:	02a00713          	li	x14,42
     714:	4ee58263          	beq	x11,x14,bf8 <bsg_printf+0x72c>
      ++fmt;    
     718:	00080493          	mv	x9,x16
      if (precision < 0) precision = 0;
     71c:	00000713          	li	x14,0
     720:	f19ff06f          	j	638 <bsg_printf+0x16c>
  int i = 0;
     724:	00000693          	li	x13,0
  while (is_digit(**s)) i = i*10 + *((*s)++) - '0';
     728:	00900613          	li	x12,9
     72c:	00269713          	slli	x14,x13,0x2
     730:	00d706b3          	add	x13,x14,x13
     734:	00148493          	addi	x9,x9,1
     738:	00169693          	slli	x13,x13,0x1
     73c:	00b686b3          	add	x13,x13,x11
     740:	0004c583          	lbu	x11,0(x9)
     744:	fd068693          	addi	x13,x13,-48 # 3fffffd0 <_bsg_elf_vcache_size+0x3ffdffd0>
     748:	fd058713          	addi	x14,x11,-48
     74c:	0ff77713          	andi	x14,x14,255
     750:	fce67ee3          	bgeu	x12,x14,72c <bsg_printf+0x260>
     754:	ed9ff06f          	j	62c <bsg_printf+0x160>
      field_width = va_arg(args, int);
     758:	0009a683          	lw	x13,0(x19) # a9814de <_bsg_elf_vcache_size+0xa9614de>
     75c:	00234583          	lbu	x11,2(x6)
      fmt++;
     760:	00230493          	addi	x9,x6,2
      field_width = va_arg(args, int);
     764:	00498993          	addi	x19,x19,4
      if (field_width < 0)
     768:	ec06d2e3          	bgez	x13,62c <bsg_printf+0x160>
        field_width = -field_width;
     76c:	40d006b3          	neg	x13,x13
        flags |= LEFT;
     770:	0107e793          	ori	x15,x15,16
     774:	eb9ff06f          	j	62c <bsg_printf+0x160>
    if (qualifier == 'l')
     778:	00498813          	addi	x16,x19,4
        base = 16;
     77c:	01000613          	li	x12,16
      num = va_arg(args, unsigned int);
     780:	0009a583          	lw	x11,0(x19)
     784:	00080993          	mv	x19,x16
    str = number(str, num, base, field_width, precision, flags);
     788:	a91ff0ef          	jal	x1,218 <number>
     78c:	0014c783          	lbu	x15,1(x9)
     790:	00148313          	addi	x6,x9,1
  for (str = buf; *fmt; fmt++)
     794:	da079ce3          	bnez	x15,54c <bsg_printf+0x80>
     798:	dd1ff06f          	j	568 <bsg_printf+0x9c>
    if (qualifier == 'l')
     79c:	00498813          	addi	x16,x19,4
    if (*fmt == 'l' || *fmt == 'L')
     7a0:	00a00613          	li	x12,10
     7a4:	fddff06f          	j	780 <bsg_printf+0x2b4>
      fmt++;
     7a8:	00030493          	mv	x9,x6
        s = va_arg(args, char *);
     7ac:	0009a603          	lw	x12,0(x19)
     7b0:	00498993          	addi	x19,x19,4
        if (!s) s = "<NULL>";
     7b4:	4a060263          	beqz	x12,c58 <bsg_printf+0x78c>
  for (sc = s; *sc != '\0' && count--; ++sc);
     7b8:	00064583          	lbu	x11,0(x12)
     7bc:	52058063          	beqz	x11,cdc <bsg_printf+0x810>
     7c0:	50070e63          	beqz	x14,cdc <bsg_printf+0x810>
     7c4:	00060593          	mv	x11,x12
     7c8:	00c0006f          	j	7d4 <bsg_printf+0x308>
     7cc:	40e58833          	sub	x16,x11,x14
     7d0:	00c80863          	beq	x16,x12,7e0 <bsg_printf+0x314>
     7d4:	0015c803          	lbu	x16,1(x11)
     7d8:	00158593          	addi	x11,x11,1
     7dc:	fe0818e3          	bnez	x16,7cc <bsg_printf+0x300>
        if (!(flags & LEFT)) while (len < field_width--) *str++ = ' ';
     7e0:	0107f793          	andi	x15,x15,16
  return sc - s;
     7e4:	40c585b3          	sub	x11,x11,x12
        if (!(flags & LEFT)) while (len < field_width--) *str++ = ' ';
     7e8:	4a078863          	beqz	x15,c98 <bsg_printf+0x7cc>
        for (i = 0; i < len; ++i) *str++ = *s++;
     7ec:	54b05c63          	blez	x11,d44 <bsg_printf+0x878>
     7f0:	00b60833          	add	x16,x12,x11
     7f4:	00050793          	mv	x15,x10
     7f8:	00064703          	lbu	x14,0(x12)
     7fc:	00160613          	addi	x12,x12,1
     800:	00178793          	addi	x15,x15,1 # 40000001 <_bsg_elf_vcache_size+0x3ffe0001>
     804:	fee78fa3          	sb	x14,-1(x15)
     808:	ff0618e3          	bne	x12,x16,7f8 <bsg_printf+0x32c>
     80c:	00b50733          	add	x14,x10,x11
        while (len < field_width--) *str++ = ' ';
     810:	40b68533          	sub	x10,x13,x11
     814:	00148313          	addi	x6,x9,1
     818:	00a70533          	add	x10,x14,x10
     81c:	02000793          	li	x15,32
     820:	4ed5d263          	bge	x11,x13,d04 <bsg_printf+0x838>
     824:	00170713          	addi	x14,x14,1
     828:	fef70fa3          	sb	x15,-1(x14)
     82c:	fea71ce3          	bne	x14,x10,824 <bsg_printf+0x358>
     830:	0014c783          	lbu	x15,1(x9)
  for (str = buf; *fmt; fmt++)
     834:	d0079ce3          	bnez	x15,54c <bsg_printf+0x80>
     838:	d31ff06f          	j	568 <bsg_printf+0x9c>
      fmt++;
     83c:	00030493          	mv	x9,x6
        if (field_width == -1)
     840:	fff00613          	li	x12,-1
     844:	40c68463          	beq	x13,x12,c4c <bsg_printf+0x780>
        str = number(str, (unsigned long) va_arg(args, void *), 16, field_width, precision, flags);
     848:	0009a583          	lw	x11,0(x19)
     84c:	01000613          	li	x12,16
     850:	00498993          	addi	x19,x19,4
     854:	9c5ff0ef          	jal	x1,218 <number>
     858:	0014c783          	lbu	x15,1(x9)
        continue;
     85c:	00148313          	addi	x6,x9,1
  for (str = buf; *fmt; fmt++)
     860:	ce0796e3          	bnez	x15,54c <bsg_printf+0x80>
     864:	d05ff06f          	j	568 <bsg_printf+0x9c>
    if (qualifier == 'l')
     868:	00498813          	addi	x16,x19,4
        base = 8;
     86c:	00800613          	li	x12,8
     870:	f11ff06f          	j	780 <bsg_printf+0x2b4>
        flags |= SIGN;
     874:	0027e793          	ori	x15,x15,2
    if (qualifier == 'l')
     878:	00498813          	addi	x16,x19,4
    base = 10;
     87c:	00a00613          	li	x12,10
     880:	f01ff06f          	j	780 <bsg_printf+0x2b4>
      fmt++;
     884:	00030493          	mv	x9,x6
        if (!(flags & LEFT)) while (--field_width > 0) *str++ = ' ';
     888:	0107f793          	andi	x15,x15,16
     88c:	fff68693          	addi	x13,x13,-1
     890:	3c078a63          	beqz	x15,c64 <bsg_printf+0x798>
        *str++ = (unsigned char) va_arg(args, int);
     894:	0009a603          	lw	x12,0(x19)
     898:	00150713          	addi	x14,x10,1
     89c:	00168793          	addi	x15,x13,1
     8a0:	00c50023          	sb	x12,0(x10)
     8a4:	00498993          	addi	x19,x19,4
        while (--field_width > 0) *str++ = ' ';
     8a8:	00f50533          	add	x10,x10,x15
     8ac:	00148313          	addi	x6,x9,1
        *str++ = (unsigned char) va_arg(args, int);
     8b0:	00070793          	mv	x15,x14
        while (--field_width > 0) *str++ = ' ';
     8b4:	02000613          	li	x12,32
     8b8:	44d05663          	blez	x13,d04 <bsg_printf+0x838>
     8bc:	00178793          	addi	x15,x15,1
     8c0:	fec78fa3          	sb	x12,-1(x15)
     8c4:	fea79ce3          	bne	x15,x10,8bc <bsg_printf+0x3f0>
     8c8:	0014c783          	lbu	x15,1(x9)
     8cc:	00d70533          	add	x10,x14,x13
  for (str = buf; *fmt; fmt++)
     8d0:	c6079ee3          	bnez	x15,54c <bsg_printf+0x80>
     8d4:	c95ff06f          	j	568 <bsg_printf+0x9c>
        flags |= UPPERCASE;
     8d8:	0407e793          	ori	x15,x15,64
    if (qualifier == 'l')
     8dc:	00498813          	addi	x16,x19,4
        base = 16;
     8e0:	01000613          	li	x12,16
     8e4:	e9dff06f          	j	780 <bsg_printf+0x2b4>
        flags |= UPPERCASE;
     8e8:	0009a703          	lw	x14,0(x19)
     8ec:	0407e793          	ori	x15,x15,64
        if (qualifier == 'l')
     8f0:	00498993          	addi	x19,x19,4
    n = addr[i];
     8f4:	00074583          	lbu	x11,0(x14)
  len = 0;
     8f8:	00000813          	li	x16,0
     8fc:	00470893          	addi	x17,x14,4
      if (n >= 100) 
     900:	06300f13          	li	x30,99
      else if (n >= 10) 
     904:	00900293          	li	x5,9
        tmp[len++] = digits[n / 10];
     908:	00a00e13          	li	x28,10
        tmp[len++] = digits[n / 100];
     90c:	06400f93          	li	x31,100
      tmp[len++] = digits[0];
     910:	03000e93          	li	x29,48
    if (i != 0) tmp[len++] = '.';
     914:	02e00313          	li	x6,46
    if (n == 0)
     918:	00180613          	addi	x12,x16,1
     91c:	02059a63          	bnez	x11,950 <bsg_printf+0x484>
      tmp[len++] = digits[0];
     920:	12010593          	addi	x11,x2,288
     924:	01058833          	add	x16,x11,x16
     928:	efd80423          	sb	x29,-280(x16)
  for (i = 0; i < 4; i++)
     92c:	00170713          	addi	x14,x14,1
     930:	07170e63          	beq	x14,x17,9ac <bsg_printf+0x4e0>
    if (i != 0) tmp[len++] = '.';
     934:	12010593          	addi	x11,x2,288
     938:	00c585b3          	add	x11,x11,x12
     93c:	ee658423          	sb	x6,-280(x11)
    n = addr[i];
     940:	00074583          	lbu	x11,0(x14)
    if (i != 0) tmp[len++] = '.';
     944:	00160813          	addi	x16,x12,1
    if (n == 0)
     948:	00180613          	addi	x12,x16,1
     94c:	fc058ae3          	beqz	x11,920 <bsg_printf+0x454>
      if (n >= 100) 
     950:	22bf5a63          	bge	x30,x11,b84 <bsg_printf+0x6b8>
        n = n % 100;
     954:	03f5ebb3          	rem	x23,x11,x31
        tmp[len++] = digits[n / 100];
     958:	12010393          	addi	x7,x2,288
     95c:	01038cb3          	add	x25,x7,x16
        tmp[len++] = digits[n / 10];
     960:	00c38c33          	add	x24,x7,x12
     964:	00280b13          	addi	x22,x16,2
     968:	00380613          	addi	x12,x16,3
        tmp[len++] = digits[n / 100];
     96c:	03f5c3b3          	div	x7,x11,x31
        tmp[len++] = digits[n / 10];
     970:	03cbc833          	div	x16,x23,x28
        tmp[len++] = digits[n / 100];
     974:	007403b3          	add	x7,x8,x7
     978:	0003c583          	lbu	x11,0(x7)
     97c:	eebc8423          	sb	x11,-280(x25)
        n = n % 10;
     980:	03cbe5b3          	rem	x11,x23,x28
        tmp[len++] = digits[n / 10];
     984:	01040833          	add	x16,x8,x16
     988:	00084803          	lbu	x16,0(x16)
     98c:	ef0c0423          	sb	x16,-280(x24)
      tmp[len++] = digits[n];
     990:	00b405b3          	add	x11,x8,x11
     994:	0005c803          	lbu	x16,0(x11)
     998:	12010593          	addi	x11,x2,288
     99c:	016585b3          	add	x11,x11,x22
     9a0:	ef058423          	sb	x16,-280(x11)
  for (i = 0; i < 4; i++)
     9a4:	00170713          	addi	x14,x14,1
     9a8:	f91716e3          	bne	x14,x17,934 <bsg_printf+0x468>
  if (!(type & LEFT)) while (len < size--) *str++ = ' ';
     9ac:	0107f793          	andi	x15,x15,16
     9b0:	fff68813          	addi	x16,x13,-1
     9b4:	02079663          	bnez	x15,9e0 <bsg_printf+0x514>
     9b8:	40c687b3          	sub	x15,x13,x12
     9bc:	00f507b3          	add	x15,x10,x15
     9c0:	02000713          	li	x14,32
     9c4:	36d65063          	bge	x12,x13,d24 <bsg_printf+0x858>
     9c8:	00150513          	addi	x10,x10,1
     9cc:	fee50fa3          	sb	x14,-1(x10)
     9d0:	fef51ce3          	bne	x10,x15,9c8 <bsg_printf+0x4fc>
     9d4:	40d606b3          	sub	x13,x12,x13
     9d8:	010686b3          	add	x13,x13,x16
     9dc:	fff68813          	addi	x16,x13,-1
  for (i = 0; i < len; ++i) *str++ = tmp[i];
     9e0:	00810793          	addi	x15,x2,8
     9e4:	00c505b3          	add	x11,x10,x12
     9e8:	0007c703          	lbu	x14,0(x15)
     9ec:	00150513          	addi	x10,x10,1
     9f0:	00178793          	addi	x15,x15,1
     9f4:	fee50fa3          	sb	x14,-1(x10)
     9f8:	feb518e3          	bne	x10,x11,9e8 <bsg_printf+0x51c>
  while (len < size--) *str++ = ' ';
     9fc:	d8d658e3          	bge	x12,x13,78c <bsg_printf+0x2c0>
     a00:	00058713          	mv	x14,x11
     a04:	02000513          	li	x10,32
     a08:	00100693          	li	x13,1
     a0c:	00170713          	addi	x14,x14,1
     a10:	40e687b3          	sub	x15,x13,x14
     a14:	010787b3          	add	x15,x15,x16
     a18:	00f587b3          	add	x15,x11,x15
     a1c:	fea70fa3          	sb	x10,-1(x14)
     a20:	fef646e3          	blt	x12,x15,a0c <bsg_printf+0x540>
     a24:	00100513          	li	x10,1
     a28:	1ec85863          	bge	x16,x12,c18 <bsg_printf+0x74c>
     a2c:	00a58533          	add	x10,x11,x10
  return str;
     a30:	d5dff06f          	j	78c <bsg_printf+0x2c0>
        flags |= SIGN;
     a34:	0027e793          	ori	x15,x15,2
    base = 10;
     a38:	00a00613          	li	x12,10
    if (qualifier == 'l')
     a3c:	06c00893          	li	x17,108
     a40:	00498813          	addi	x16,x19,4
     a44:	2d159863          	bne	x11,x17,d14 <bsg_printf+0x848>
      num = va_arg(args, unsigned long);
     a48:	0009a583          	lw	x11,0(x19)
      fmt++;
     a4c:	00030493          	mv	x9,x6
     a50:	00080993          	mv	x19,x16
     a54:	d35ff06f          	j	788 <bsg_printf+0x2bc>
        base = 8;
     a58:	00800613          	li	x12,8
        break;
     a5c:	fe1ff06f          	j	a3c <bsg_printf+0x570>
        flags |= UPPERCASE;
     a60:	0407e793          	ori	x15,x15,64
        base = 16;
     a64:	01000613          	li	x12,16
     a68:	fd5ff06f          	j	a3c <bsg_printf+0x570>
        flags |= UPPERCASE;
     a6c:	0407e793          	ori	x15,x15,64
        if (qualifier == 'l')
     a70:	06c00613          	li	x12,108
     a74:	0009a703          	lw	x14,0(x19)
     a78:	00498993          	addi	x19,x19,4
     a7c:	24c59463          	bne	x11,x12,cc4 <bsg_printf+0x7f8>
  if (type & UPPERCASE)  dig = upper_digits;
     a80:	0407f613          	andi	x12,x15,64
  char *dig = digits;
     a84:	00040893          	mv	x17,x8
  if (type & UPPERCASE)  dig = upper_digits;
     a88:	00060663          	beqz	x12,a94 <bsg_printf+0x5c8>
     a8c:	810008b7          	lui	x17,0x81000
     a90:	02888893          	addi	x17,x17,40 # 81000028 <_end+0xffffffd0>
    if (i != 0) tmp[len++] = ':';
     a94:	00810313          	addi	x6,x2,8
     a98:	01a10e13          	addi	x28,x2,26
  if (type & UPPERCASE)  dig = upper_digits;
     a9c:	00030593          	mv	x11,x6
    if (i != 0) tmp[len++] = ':';
     aa0:	03a00e93          	li	x29,58
     aa4:	0080006f          	j	aac <bsg_printf+0x5e0>
     aa8:	ffd58fa3          	sb	x29,-1(x11)
    tmp[len++] = dig[addr[i] >> 4];
     aac:	00074603          	lbu	x12,0(x14)
     ab0:	00358593          	addi	x11,x11,3
     ab4:	00170713          	addi	x14,x14,1
     ab8:	00465813          	srli	x16,x12,0x4
    tmp[len++] = dig[addr[i] & 0x0F];
     abc:	00f67613          	andi	x12,x12,15
    tmp[len++] = dig[addr[i] >> 4];
     ac0:	01088833          	add	x16,x17,x16
    tmp[len++] = dig[addr[i] & 0x0F];
     ac4:	00c88633          	add	x12,x17,x12
    tmp[len++] = dig[addr[i] >> 4];
     ac8:	00084803          	lbu	x16,0(x16)
    tmp[len++] = dig[addr[i] & 0x0F];
     acc:	00064603          	lbu	x12,0(x12)
    tmp[len++] = dig[addr[i] >> 4];
     ad0:	ff058ea3          	sb	x16,-3(x11)
    tmp[len++] = dig[addr[i] & 0x0F];
     ad4:	fec58f23          	sb	x12,-2(x11)
  for (i = 0; i < 6; i++)
     ad8:	fdc598e3          	bne	x11,x28,aa8 <bsg_printf+0x5dc>
  if (!(type & LEFT)) while (len < size--) *str++ = ' ';
     adc:	0107f793          	andi	x15,x15,16
     ae0:	fff68613          	addi	x12,x13,-1
     ae4:	02079663          	bnez	x15,b10 <bsg_printf+0x644>
     ae8:	fef68593          	addi	x11,x13,-17
     aec:	01100813          	li	x16,17
     af0:	00b50733          	add	x14,x10,x11
     af4:	02000793          	li	x15,32
     af8:	22d85e63          	bge	x16,x13,d34 <bsg_printf+0x868>
     afc:	00150513          	addi	x10,x10,1
     b00:	fef50fa3          	sb	x15,-1(x10)
     b04:	fee51ce3          	bne	x10,x14,afc <bsg_printf+0x630>
     b08:	40b606b3          	sub	x13,x12,x11
     b0c:	fff68613          	addi	x12,x13,-1
  for (i = 0; i < len; ++i) *str++ = tmp[i];
     b10:	00050793          	mv	x15,x10
     b14:	01130593          	addi	x11,x6,17
     b18:	00034703          	lbu	x14,0(x6)
     b1c:	00130313          	addi	x6,x6,1
     b20:	00178793          	addi	x15,x15,1
     b24:	fee78fa3          	sb	x14,-1(x15)
     b28:	fe6598e3          	bne	x11,x6,b18 <bsg_printf+0x64c>
  while (len < size--) *str++ = ' ';
     b2c:	01100793          	li	x15,17
     b30:	01150513          	addi	x10,x10,17
     b34:	04d7d063          	bge	x15,x13,b74 <bsg_printf+0x6a8>
  for (i = 0; i < len; ++i) *str++ = tmp[i];
     b38:	00050713          	mv	x14,x10
  while (len < size--) *str++ = ' ';
     b3c:	02000813          	li	x16,32
     b40:	00100593          	li	x11,1
     b44:	01100693          	li	x13,17
     b48:	00170713          	addi	x14,x14,1
     b4c:	40e587b3          	sub	x15,x11,x14
     b50:	00c787b3          	add	x15,x15,x12
     b54:	00f507b3          	add	x15,x10,x15
     b58:	ff070fa3          	sb	x16,-1(x14)
     b5c:	fef6c6e3          	blt	x13,x15,b48 <bsg_printf+0x67c>
     b60:	01000713          	li	x14,16
     b64:	00100793          	li	x15,1
     b68:	00c75463          	bge	x14,x12,b70 <bsg_printf+0x6a4>
     b6c:	ff060793          	addi	x15,x12,-16
     b70:	00f50533          	add	x10,x10,x15
  return str;
     b74:	0024c783          	lbu	x15,2(x9)
     b78:	00248313          	addi	x6,x9,2
  for (str = buf; *fmt; fmt++)
     b7c:	9c0798e3          	bnez	x15,54c <bsg_printf+0x80>
     b80:	9e9ff06f          	j	568 <bsg_printf+0x9c>
      else if (n >= 10) 
     b84:	00080b13          	mv	x22,x16
     b88:	e0b2d4e3          	bge	x5,x11,990 <bsg_printf+0x4c4>
        tmp[len++] = digits[n / 10];
     b8c:	03c5c3b3          	div	x7,x11,x28
     b90:	12010b13          	addi	x22,x2,288
     b94:	010b0bb3          	add	x23,x22,x16
     b98:	00060b13          	mv	x22,x12
        n = n % 10;
     b9c:	00280613          	addi	x12,x16,2
        tmp[len++] = digits[n / 10];
     ba0:	00740833          	add	x16,x8,x7
     ba4:	00084803          	lbu	x16,0(x16)
        n = n % 10;
     ba8:	03c5e5b3          	rem	x11,x11,x28
        tmp[len++] = digits[n / 10];
     bac:	ef0b8423          	sb	x16,-280(x23)
        n = n % 10;
     bb0:	de1ff06f          	j	990 <bsg_printf+0x4c4>
  int i = 0;
     bb4:	00000713          	li	x14,0
  while (is_digit(**s)) i = i*10 + *((*s)++) - '0';
     bb8:	00900893          	li	x17,9
     bbc:	00271613          	slli	x12,x14,0x2
     bc0:	00e60733          	add	x14,x12,x14
     bc4:	00180813          	addi	x16,x16,1
     bc8:	00171713          	slli	x14,x14,0x1
     bcc:	00b70733          	add	x14,x14,x11
     bd0:	00084583          	lbu	x11,0(x16)
     bd4:	fd070713          	addi	x14,x14,-48
     bd8:	fd058613          	addi	x12,x11,-48
     bdc:	0ff67613          	andi	x12,x12,255
     be0:	fcc8fee3          	bgeu	x17,x12,bbc <bsg_printf+0x6f0>
     be4:	00080493          	mv	x9,x16
     be8:	a51ff06f          	j	638 <bsg_printf+0x16c>
     bec:	0009a703          	lw	x14,0(x19)
     bf0:	00498993          	addi	x19,x19,4
     bf4:	d01ff06f          	j	8f4 <bsg_printf+0x428>
        precision = va_arg(args, int);
     bf8:	0009a703          	lw	x14,0(x19)
     bfc:	0024c583          	lbu	x11,2(x9)
     c00:	00498993          	addi	x19,x19,4
     c04:	fff74613          	not	x12,x14
     c08:	41f65613          	srai	x12,x12,0x1f
     c0c:	00c77733          	and	x14,x14,x12
        ++fmt;
     c10:	00248493          	addi	x9,x9,2
      if (precision < 0) precision = 0;
     c14:	a25ff06f          	j	638 <bsg_printf+0x16c>
     c18:	40c686b3          	sub	x13,x13,x12
     c1c:	01068533          	add	x10,x13,x16
     c20:	00a58533          	add	x10,x11,x10
  return str;
     c24:	b69ff06f          	j	78c <bsg_printf+0x2c0>
        if (*fmt)
     c28:	0004c703          	lbu	x14,0(x9)
     c2c:	00078693          	mv	x13,x15
     c30:	00050793          	mv	x15,x10
     c34:	00068513          	mv	x10,x13
          *str++ = *fmt;
     c38:	00e78023          	sb	x14,0(x15)
     c3c:	0014c783          	lbu	x15,1(x9)
     c40:	00148313          	addi	x6,x9,1
  for (str = buf; *fmt; fmt++)
     c44:	900794e3          	bnez	x15,54c <bsg_printf+0x80>
     c48:	921ff06f          	j	568 <bsg_printf+0x9c>
          flags |= ZEROPAD;
     c4c:	0017e793          	ori	x15,x15,1
          field_width = 2 * sizeof(void *);
     c50:	00800693          	li	x13,8
     c54:	bf5ff06f          	j	848 <bsg_printf+0x37c>
        if (!s) s = "<NULL>";
     c58:	81000637          	lui	x12,0x81000
     c5c:	05060613          	addi	x12,x12,80 # 81000050 <_end+0xfffffff8>
     c60:	b61ff06f          	j	7c0 <bsg_printf+0x2f4>
        if (!(flags & LEFT)) while (--field_width > 0) *str++ = ' ';
     c64:	00d50733          	add	x14,x10,x13
     c68:	02000793          	li	x15,32
     c6c:	08d05263          	blez	x13,cf0 <bsg_printf+0x824>
     c70:	00150513          	addi	x10,x10,1
     c74:	fef50fa3          	sb	x15,-1(x10)
     c78:	fee51ce3          	bne	x10,x14,c70 <bsg_printf+0x7a4>
     c7c:	fff00693          	li	x13,-1
     c80:	c15ff06f          	j	894 <bsg_printf+0x3c8>
  int n=0;
     c84:	00000513          	li	x10,0
     c88:	921ff06f          	j	5a8 <bsg_printf+0xdc>
  for (str = buf; *fmt; fmt++)
     c8c:	02010913          	addi	x18,x2,32
     c90:	00090513          	mv	x10,x18
     c94:	8d5ff06f          	j	568 <bsg_printf+0x9c>
        if (!(flags & LEFT)) while (len < field_width--) *str++ = ' ';
     c98:	fff68813          	addi	x16,x13,-1
     c9c:	0cd5d263          	bge	x11,x13,d60 <bsg_printf+0x894>
     ca0:	40b687b3          	sub	x15,x13,x11
     ca4:	00f507b3          	add	x15,x10,x15
     ca8:	02000713          	li	x14,32
     cac:	00150513          	addi	x10,x10,1
     cb0:	fee50fa3          	sb	x14,-1(x10)
     cb4:	fef51ce3          	bne	x10,x15,cac <bsg_printf+0x7e0>
     cb8:	40d586b3          	sub	x13,x11,x13
     cbc:	010686b3          	add	x13,x13,x16
     cc0:	b2dff06f          	j	7ec <bsg_printf+0x320>
      fmt++;
     cc4:	00030493          	mv	x9,x6
     cc8:	c2dff06f          	j	8f4 <bsg_printf+0x428>
        base = 16;
     ccc:	01000613          	li	x12,16
     cd0:	d6dff06f          	j	a3c <bsg_printf+0x570>
    switch (*fmt)
     cd4:	00a00613          	li	x12,10
     cd8:	d65ff06f          	j	a3c <bsg_printf+0x570>
        if (!(flags & LEFT)) while (len < field_width--) *str++ = ' ';
     cdc:	0107f593          	andi	x11,x15,16
     ce0:	06058663          	beqz	x11,d4c <bsg_printf+0x880>
     ce4:	00050713          	mv	x14,x10
  return sc - s;
     ce8:	00000593          	li	x11,0
     cec:	b25ff06f          	j	810 <bsg_printf+0x344>
        *str++ = (unsigned char) va_arg(args, int);
     cf0:	0009a783          	lw	x15,0(x19)
     cf4:	00150713          	addi	x14,x10,1
     cf8:	00498993          	addi	x19,x19,4
     cfc:	00f50023          	sb	x15,0(x10)
        while (--field_width > 0) *str++ = ' ';
     d00:	00148313          	addi	x6,x9,1
     d04:	0014c783          	lbu	x15,1(x9)
        while (len < field_width--) *str++ = ' ';
     d08:	00070513          	mv	x10,x14
  for (str = buf; *fmt; fmt++)
     d0c:	840790e3          	bnez	x15,54c <bsg_printf+0x80>
     d10:	859ff06f          	j	568 <bsg_printf+0x9c>
      fmt++;
     d14:	00030493          	mv	x9,x6
     d18:	a69ff06f          	j	780 <bsg_printf+0x2b4>
     d1c:	00250513          	addi	x10,x10,2
     d20:	f19ff06f          	j	c38 <bsg_printf+0x76c>
     d24:	ffe68793          	addi	x15,x13,-2
  if (!(type & LEFT)) while (len < size--) *str++ = ' ';
     d28:	00080693          	mv	x13,x16
     d2c:	00078813          	mv	x16,x15
     d30:	cb1ff06f          	j	9e0 <bsg_printf+0x514>
     d34:	ffe68793          	addi	x15,x13,-2
  if (!(type & LEFT)) while (len < size--) *str++ = ' ';
     d38:	00060693          	mv	x13,x12
     d3c:	00078613          	mv	x12,x15
     d40:	dd1ff06f          	j	b10 <bsg_printf+0x644>
        for (i = 0; i < len; ++i) *str++ = *s++;
     d44:	00050713          	mv	x14,x10
     d48:	ac9ff06f          	j	810 <bsg_printf+0x344>
        if (!(flags & LEFT)) while (len < field_width--) *str++ = ' ';
     d4c:	fff68813          	addi	x16,x13,-1
     d50:	f4d048e3          	bgtz	x13,ca0 <bsg_printf+0x7d4>
     d54:	00080693          	mv	x13,x16
     d58:	00050713          	mv	x14,x10
     d5c:	ab5ff06f          	j	810 <bsg_printf+0x344>
     d60:	00080693          	mv	x13,x16
     d64:	a89ff06f          	j	7ec <bsg_printf+0x320>

00000d68 <_Z22bsg_tile_group_barrierP17_bsg_row_barrier_P17_bsg_col_barrier_>:

//------------------------------------------------------------------
//  The main sync funciton
//------------------------------------------------------------------
void bsg_tile_group_barrier(bsg_row_barrier *p_row_b, bsg_col_barrier * p_col_b){
        int center_x_cord = (p_row_b->_x_cord_start + p_row_b->_x_cord_end)/2;
     d68:	00054683          	lbu	x13,0(x10)
     d6c:	00154603          	lbu	x12,1(x10)
        bsg_row_barrier * p_remote_barrier = (bsg_row_barrier *) bsg_remote_ptr( center_x_cord,    \
     d70:	00001337          	lui	x6,0x1
     d74:	02032783          	lw	x15,32(x6) # 1020 <__bsg_y>
        int center_x_cord = (p_row_b->_x_cord_start + p_row_b->_x_cord_end)/2;
     d78:	00d60633          	add	x12,x12,x13
        p_remote_barrier->_done_list[ bsg_x - p_row_b-> _x_cord_start] = 1; 
     d7c:	00001e37          	lui	x28,0x1
        int center_x_cord = (p_row_b->_x_cord_start + p_row_b->_x_cord_end)/2;
     d80:	40165613          	srai	x12,x12,0x1
        p_remote_barrier->_done_list[ bsg_x - p_row_b-> _x_cord_start] = 1; 
     d84:	024e2703          	lw	x14,36(x28) # 1024 <__bsg_x>
        bsg_row_barrier * p_remote_barrier = (bsg_row_barrier *) bsg_remote_ptr( center_x_cord,    \
     d88:	01261813          	slli	x16,x12,0x12
     d8c:	01879793          	slli	x15,x15,0x18
     d90:	0107e7b3          	or	x15,x15,x16
     d94:	00a7e7b3          	or	x15,x15,x10
     d98:	20000eb7          	lui	x29,0x20000
        p_remote_barrier->_done_list[ bsg_x - p_row_b-> _x_cord_start] = 1; 
     d9c:	40d70733          	sub	x14,x14,x13
        bsg_row_barrier * p_remote_barrier = (bsg_row_barrier *) bsg_remote_ptr( center_x_cord,    \
     da0:	01d7e7b3          	or	x15,x15,x29
        p_remote_barrier->_done_list[ bsg_x - p_row_b-> _x_cord_start] = 1; 
     da4:	00e787b3          	add	x15,x15,x14
     da8:	00100693          	li	x13,1

        int center_y_cord = (p_col_b->_y_cord_start + p_col_b->_y_cord_end)/2;
     dac:	0005c703          	lbu	x14,0(x11)
     db0:	0015c883          	lbu	x17,1(x11)
        p_remote_barrier->_done_list[ bsg_x - p_row_b-> _x_cord_start] = 1; 
     db4:	00d78123          	sb	x13,2(x15)
        #endif
        //1. send sync signals to center of the row 
        bsg_row_barrier_sync(p_row_b, center_x_cord );

        //2. send sync signals to the center of the col
        if( bsg_x == center_x_cord) 
     db8:	024e2783          	lw	x15,36(x28)
     dbc:	02c78463          	beq	x15,x12,de4 <_Z22bsg_tile_group_barrierP17_bsg_row_barrier_P17_bsg_col_barrier_+0x7c>
        bsg_wait_local_int( (int *) &(p_row_b->_local_alert), 1);
     dc0:	00450713          	addi	x14,x10,4
// wait until the specified memory address was written with specific value
inline int bsg_wait_local_int(int * ptr,  int cond ) {
    int tmp;
    while(1){
        tmp = bsg_lr( ptr );
        if( tmp == cond ) return tmp;  //the data is ready
     dc4:	00100793          	li	x15,1
     dc8:	00c0006f          	j	dd4 <_Z22bsg_tile_group_barrierP17_bsg_row_barrier_P17_bsg_col_barrier_+0x6c>
#ifdef __clang__
inline int bsg_lr(int *p)    { int tmp; __asm__ __volatile__("lr.w    %0,%1\n" : "=r" (tmp) : "m" (*p)); return tmp; }
inline int bsg_lr_aq(int *p) { int tmp; __asm__ __volatile__("lr.w.aq %0,%1\n" : "=r" (tmp) : "m" (*p)); return tmp; }
#elif defined(__GNUC__) || defined(__GNUG__)
inline int bsg_lr(int *p)    { int tmp; __asm__ __volatile__("lr.w    %0,%1\n" : "=r" (tmp) : "A" (*p)); return tmp; }
inline int bsg_lr_aq(int *p) { int tmp; __asm__ __volatile__("lr.w.aq %0,%1\n" : "=r" (tmp) : "A" (*p)); return tmp; }
     dcc:	140726af          	lr.w.aq	x13,(x14)
        else{
            tmp = bsg_lr_aq( ptr );    //stall until somebody clear the reservation
            if( tmp == cond ) return tmp; //return if data is expected, otherwise retry
     dd0:	00f68663          	beq	x13,x15,ddc <_Z22bsg_tile_group_barrierP17_bsg_row_barrier_P17_bsg_col_barrier_+0x74>
inline int bsg_lr(int *p)    { int tmp; __asm__ __volatile__("lr.w    %0,%1\n" : "=r" (tmp) : "A" (*p)); return tmp; }
     dd4:	100726af          	lr.w	x13,(x14)
        if( tmp == cond ) return tmp;  //the data is ready
     dd8:	fef69ae3          	bne	x13,x15,dcc <_Z22bsg_tile_group_barrierP17_bsg_row_barrier_P17_bsg_col_barrier_+0x64>
        p_row_b->_local_alert = 0;
     ddc:	00052223          	sw	x0,4(x10)
}
     de0:	00008067          	ret
        int center_y_cord = (p_col_b->_y_cord_start + p_col_b->_y_cord_end)/2;
     de4:	01170733          	add	x14,x14,x17
        int x_range = p_row_b-> _x_cord_end - p_row_b->_x_cord_start;
     de8:	00154683          	lbu	x13,1(x10)
     dec:	00054f03          	lbu	x30,0(x10)
        int center_y_cord = (p_col_b->_y_cord_start + p_col_b->_y_cord_end)/2;
     df0:	40175893          	srai	x17,x14,0x1
        bsg_col_barrier * p_remote_barrier = (bsg_col_barrier *) bsg_remote_ptr( center_x_cord,    \
     df4:	01889793          	slli	x15,x17,0x18
     df8:	00b86833          	or	x16,x16,x11
     dfc:	0107e833          	or	x16,x15,x16
     e00:	01d86eb3          	or	x29,x16,x29
        int x_range = p_row_b-> _x_cord_end - p_row_b->_x_cord_start;
     e04:	41e686b3          	sub	x13,x13,x30
                for( i= 0; i <= range; i++) {
     e08:	0006ce63          	bltz	x13,e24 <_Z22bsg_tile_group_barrierP17_bsg_row_barrier_P17_bsg_col_barrier_+0xbc>
     e0c:	00000793          	li	x15,0
                        if ( p[ i ] == 0) break;
     e10:	00f50733          	add	x14,x10,x15
     e14:	00274703          	lbu	x14,2(x14)
                for( i= 0; i <= range; i++) {
     e18:	00178793          	addi	x15,x15,1
                        if ( p[ i ] == 0) break;
     e1c:	fe0706e3          	beqz	x14,e08 <_Z22bsg_tile_group_barrierP17_bsg_row_barrier_P17_bsg_col_barrier_+0xa0>
                for( i= 0; i <= range; i++) {
     e20:	fef6d8e3          	bge	x13,x15,e10 <_Z22bsg_tile_group_barrierP17_bsg_row_barrier_P17_bsg_col_barrier_+0xa8>
        p_remote_barrier->_done_list[ bsg_y - p_col_b-> _y_cord_start] = 1; 
     e24:	0005c703          	lbu	x14,0(x11)
     e28:	02032783          	lw	x15,32(x6)
     e2c:	40e787b3          	sub	x15,x15,x14
     e30:	00fe8eb3          	add	x29,x29,x15
     e34:	00100793          	li	x15,1
     e38:	00fe8123          	sb	x15,2(x29) # 20000002 <_bsg_elf_vcache_size+0x1ffe0002>
        if( bsg_x == center_x_cord && bsg_y == center_y_cord) 
     e3c:	024e2f03          	lw	x30,36(x28)
     e40:	f8cf10e3          	bne	x30,x12,dc0 <_Z22bsg_tile_group_barrierP17_bsg_row_barrier_P17_bsg_col_barrier_+0x58>
     e44:	02032783          	lw	x15,32(x6)
     e48:	07178c63          	beq	x15,x17,ec0 <_Z22bsg_tile_group_barrierP17_bsg_row_barrier_P17_bsg_col_barrier_+0x158>
        int x_range = p_row_b-> _x_cord_end - p_row_b->_x_cord_start;
     e4c:	00154803          	lbu	x16,1(x10)
     e50:	00054703          	lbu	x14,0(x10)
        bsg_wait_local_int( (int *) &(p_col_b -> _local_alert),  1);
     e54:	00458693          	addi	x13,x11,4
        if( tmp == cond ) return tmp;  //the data is ready
     e58:	00100793          	li	x15,1
        int x_range = p_row_b-> _x_cord_end - p_row_b->_x_cord_start;
     e5c:	40e808b3          	sub	x17,x16,x14
        bsg_wait_local_int( (int *) &(p_col_b -> _local_alert),  1);
     e60:	00c0006f          	j	e6c <_Z22bsg_tile_group_barrierP17_bsg_row_barrier_P17_bsg_col_barrier_+0x104>
inline int bsg_lr_aq(int *p) { int tmp; __asm__ __volatile__("lr.w.aq %0,%1\n" : "=r" (tmp) : "A" (*p)); return tmp; }
     e64:	1406a62f          	lr.w.aq	x12,(x13)
            if( tmp == cond ) return tmp; //return if data is expected, otherwise retry
     e68:	00f60663          	beq	x12,x15,e74 <_Z22bsg_tile_group_barrierP17_bsg_row_barrier_P17_bsg_col_barrier_+0x10c>
inline int bsg_lr(int *p)    { int tmp; __asm__ __volatile__("lr.w    %0,%1\n" : "=r" (tmp) : "A" (*p)); return tmp; }
     e6c:	1006a62f          	lr.w	x12,(x13)
        if( tmp == cond ) return tmp;  //the data is ready
     e70:	fef61ae3          	bne	x12,x15,e64 <_Z22bsg_tile_group_barrierP17_bsg_row_barrier_P17_bsg_col_barrier_+0xfc>
        for( i= p_row_b-> _x_cord_start; i <= p_row_b-> _x_cord_end; i++) {
     e74:	02e84a63          	blt	x16,x14,ea8 <_Z22bsg_tile_group_barrierP17_bsg_row_barrier_P17_bsg_col_barrier_+0x140>
               p_remote_barrier = (bsg_row_barrier *) bsg_remote_ptr( i,        \
     e78:	02032683          	lw	x13,32(x6)
     e7c:	20000837          	lui	x16,0x20000
               p_remote_barrier->_local_alert = 1;
     e80:	00100613          	li	x12,1
               p_remote_barrier = (bsg_row_barrier *) bsg_remote_ptr( i,        \
     e84:	01869693          	slli	x13,x13,0x18
     e88:	01271793          	slli	x15,x14,0x12
     e8c:	00d7e7b3          	or	x15,x15,x13
     e90:	00f567b3          	or	x15,x10,x15
     e94:	0107e7b3          	or	x15,x15,x16
               p_remote_barrier->_local_alert = 1;
     e98:	00c7a223          	sw	x12,4(x15)
        for( i= p_row_b-> _x_cord_start; i <= p_row_b-> _x_cord_end; i++) {
     e9c:	00154783          	lbu	x15,1(x10)
     ea0:	00170713          	addi	x14,x14,1
     ea4:	fee7d2e3          	bge	x15,x14,e88 <_Z22bsg_tile_group_barrierP17_bsg_row_barrier_P17_bsg_col_barrier_+0x120>
        for( i= 0; i <= x_range; i++) {
     ea8:	0008d663          	bgez	x17,eb4 <_Z22bsg_tile_group_barrierP17_bsg_row_barrier_P17_bsg_col_barrier_+0x14c>
        p_col_b -> _local_alert = 0;
     eac:	0005a223          	sw	x0,4(x11)
}
     eb0:	f11ff06f          	j	dc0 <_Z22bsg_tile_group_barrierP17_bsg_row_barrier_P17_bsg_col_barrier_+0x58>
              p_row_b->_done_list[ i ] = 0;
     eb4:	00050123          	sb	x0,2(x10)
        p_col_b -> _local_alert = 0;
     eb8:	0005a223          	sw	x0,4(x11)
     ebc:	f05ff06f          	j	dc0 <_Z22bsg_tile_group_barrierP17_bsg_row_barrier_P17_bsg_col_barrier_+0x58>
        int y_range = p_col_b-> _y_cord_end - p_col_b->_y_cord_start;
     ec0:	0015cf83          	lbu	x31,1(x11)
     ec4:	0005ce83          	lbu	x29,0(x11)
                for( i= 0; i <= range; i++) {
     ec8:	ffe00893          	li	x17,-2
     ecc:	40b888b3          	sub	x17,x17,x11
        int y_range = p_col_b-> _y_cord_end - p_col_b->_y_cord_start;
     ed0:	41df8833          	sub	x16,x31,x29
                for( i= 0; i <= range; i++) {
     ed4:	06084063          	bltz	x16,f34 <_Z22bsg_tile_group_barrierP17_bsg_row_barrier_P17_bsg_col_barrier_+0x1cc>
     ed8:	00258793          	addi	x15,x11,2
                        if ( p[ i ] == 0) break;
     edc:	0007c703          	lbu	x14,0(x15)
     ee0:	00178793          	addi	x15,x15,1
                for( i= 0; i <= range; i++) {
     ee4:	00f886b3          	add	x13,x17,x15
                        if ( p[ i ] == 0) break;
     ee8:	fe0706e3          	beqz	x14,ed4 <_Z22bsg_tile_group_barrierP17_bsg_row_barrier_P17_bsg_col_barrier_+0x16c>
                for( i= 0; i <= range; i++) {
     eec:	fed858e3          	bge	x16,x13,edc <_Z22bsg_tile_group_barrierP17_bsg_row_barrier_P17_bsg_col_barrier_+0x174>
        for( i= p_col_b-> _y_cord_start; i <= p_col_b-> _y_cord_end; i++) {
     ef0:	03dfca63          	blt	x31,x29,f24 <_Z22bsg_tile_group_barrierP17_bsg_row_barrier_P17_bsg_col_barrier_+0x1bc>
               p_remote_barrier = (bsg_col_barrier *) bsg_remote_ptr( bsg_x,    \
     ef4:	012f1f13          	slli	x30,x30,0x12
     ef8:	200006b7          	lui	x13,0x20000
               p_remote_barrier->_local_alert = 1;
     efc:	00100713          	li	x14,1
               p_remote_barrier = (bsg_col_barrier *) bsg_remote_ptr( bsg_x,    \
     f00:	018e9793          	slli	x15,x29,0x18
     f04:	01e7e7b3          	or	x15,x15,x30
     f08:	00f5e7b3          	or	x15,x11,x15
     f0c:	00d7e7b3          	or	x15,x15,x13
               p_remote_barrier->_local_alert = 1;
     f10:	00e7a223          	sw	x14,4(x15)
        for( i= p_col_b-> _y_cord_start; i <= p_col_b-> _y_cord_end; i++) {
     f14:	0015c783          	lbu	x15,1(x11)
     f18:	001e8e93          	addi	x29,x29,1
     f1c:	ffd7d2e3          	bge	x15,x29,f00 <_Z22bsg_tile_group_barrierP17_bsg_row_barrier_P17_bsg_col_barrier_+0x198>
        for( i= 0; i <= y_range; i++) {
     f20:	f20846e3          	bltz	x16,e4c <_Z22bsg_tile_group_barrierP17_bsg_row_barrier_P17_bsg_col_barrier_+0xe4>
              p_col_b->_done_list[ i ] = 0;
     f24:	00058123          	sb	x0,2(x11)
        if( bsg_x == center_x_cord)
     f28:	024e2783          	lw	x15,36(x28)
     f2c:	e8c79ae3          	bne	x15,x12,dc0 <_Z22bsg_tile_group_barrierP17_bsg_row_barrier_P17_bsg_col_barrier_+0x58>
     f30:	f1dff06f          	j	e4c <_Z22bsg_tile_group_barrierP17_bsg_row_barrier_P17_bsg_col_barrier_+0xe4>
        for( i= p_col_b-> _y_cord_start; i <= p_col_b-> _y_cord_end; i++) {
     f34:	fddfd0e3          	bge	x31,x29,ef4 <_Z22bsg_tile_group_barrierP17_bsg_row_barrier_P17_bsg_col_barrier_+0x18c>
     f38:	f15ff06f          	j	e4c <_Z22bsg_tile_group_barrierP17_bsg_row_barrier_P17_bsg_col_barrier_+0xe4>

00000f3c <kernel_matrix_multiply_int>:
                      uint32_t B_WIDTH, uint32_t tag, uint32_t iter) {
     f3c:	f9010113          	addi	x2,x2,-112
     f40:	06112623          	sw	x1,108(x2)
     f44:	06812423          	sw	x8,104(x2)
     f48:	06912223          	sw	x9,100(x2)
     f4c:	07010413          	addi	x8,x2,112
     f50:	07212023          	sw	x18,96(x2)
     f54:	05312e23          	sw	x19,92(x2)
     f58:	05412c23          	sw	x20,88(x2)
     f5c:	05512a23          	sw	x21,84(x2)
     f60:	05612823          	sw	x22,80(x2)
     f64:	05712623          	sw	x23,76(x2)
     f68:	05812423          	sw	x24,72(x2)
     f6c:	05912223          	sw	x25,68(x2)
     f70:	05a12023          	sw	x26,64(x2)
     f74:	03b12e23          	sw	x27,60(x2)
     f78:	00070e13          	mv	x28,x14
     f7c:	fae42223          	sw	x14,-92(x8) # 80ffffa4 <_end+0xffffff4c>
                int A_local[A_HEIGHT * A_WIDTH];
     f80:	02d70733          	mul	x14,x14,x13
                      uint32_t B_WIDTH, uint32_t tag, uint32_t iter) {
     f84:	00068e93          	mv	x29,x13
     f88:	fad42423          	sw	x13,-88(x8)
     f8c:	00279693          	slli	x13,x15,0x2
     f90:	faf42e23          	sw	x15,-68(x8)
     f94:	00060313          	mv	x6,x12
     f98:	00058493          	mv	x9,x11
                memcpy (A_local, A, sizeof(A[0])*A_HEIGHT*A_WIDTH);
     f9c:	00050593          	mv	x11,x10
                      uint32_t B_WIDTH, uint32_t tag, uint32_t iter) {
     fa0:	f8642c23          	sw	x6,-104(x8)
     fa4:	fb042023          	sw	x16,-96(x8)
                int B_local[A_WIDTH * B_WIDTH];
     fa8:	02de09b3          	mul	x19,x28,x13
                int A_local[A_HEIGHT * A_WIDTH];
     fac:	00271613          	slli	x12,x14,0x2
     fb0:	00f60713          	addi	x14,x12,15
     fb4:	ff077713          	andi	x14,x14,-16
     fb8:	40e10133          	sub	x2,x2,x14
     fbc:	00010513          	mv	x10,x2
     fc0:	faa42a23          	sw	x10,-76(x8)
                for(int i = 0; i <= iter; ++i){
     fc4:	00000913          	li	x18,0
     fc8:	00001d37          	lui	x26,0x1
     fcc:	00001cb7          	lui	x25,0x1
                int C_local[A_HEIGHT * B_WIDTH];
     fd0:	02de87b3          	mul	x15,x29,x13
                int B_local[A_WIDTH * B_WIDTH];
     fd4:	00f98713          	addi	x14,x19,15
     fd8:	ff077713          	andi	x14,x14,-16
     fdc:	40e10133          	sub	x2,x2,x14
     fe0:	00188713          	addi	x14,x17,1
     fe4:	fae42623          	sw	x14,-84(x8)
     fe8:	00010a13          	mv	x20,x2
     fec:	fb442823          	sw	x20,-80(x8)
                int C_local[A_HEIGHT * B_WIDTH];
     ff0:	00001c37          	lui	x24,0x1
     ff4:	00001b37          	lui	x22,0x1
     ff8:	00f78713          	addi	x14,x15,15
     ffc:	ff077713          	andi	x14,x14,-16
    1000:	40e10133          	sub	x2,x2,x14
    1004:	f8f42e23          	sw	x15,-100(x8)
                memcpy (A_local, A, sizeof(A[0])*A_HEIGHT*A_WIDTH);
    1008:	7bc000ef          	jal	x1,17c4 <memcpy>
                memcpy (B_local, B, sizeof(B[0])*A_WIDTH*B_WIDTH);
    100c:	00098613          	mv	x12,x19
    1010:	00048593          	mv	x11,x9
    1014:	000a0513          	mv	x10,x20
    1018:	7ac000ef          	jal	x1,17c4 <memcpy>
                        bsg_cuda_print_stat_start(temp);
    101c:	000409b7          	lui	x19,0x40
    1020:	fbc42783          	lw	x15,-68(x8)
                int C_local[A_HEIGHT * B_WIDTH];
    1024:	fa242c23          	sw	x2,-72(x8)
                int rc, temp = IGNORE_TAG;
    1028:	00000493          	li	x9,0
    102c:	00001ab7          	lui	x21,0x1
                        bsg_cuda_print_stat_start(temp);
    1030:	3f000db7          	lui	x27,0x3f000
    1034:	00fc0a37          	lui	x20,0xfc0
    1038:	ff098993          	addi	x19,x19,-16 # 3fff0 <_bsg_elf_vcache_size+0x1fff0>
    103c:	40001bb7          	lui	x23,0x40001
    1040:	0080006f          	j	1048 <_tls_data+0x8>
                        temp = tag;
    1044:	fa042483          	lw	x9,-96(x8)
                        bsg_cuda_print_stat_start(temp);
    1048:	020ca503          	lw	x10,32(x25) # 1020 <__bsg_y>
    104c:	024b2583          	lw	x11,36(x22) # 1024 <__bsg_x>
    1050:	014d2703          	lw	x14,20(x26) # 1014 <__bsg_grp_org_y>
    1054:	018c2603          	lw	x12,24(x24) # 1018 <__bsg_grp_org_x>
    1058:	000aa683          	lw	x13,0(x21) # 1000 <_bsg_data_start_addr>
    105c:	00a70733          	add	x14,x14,x10
    1060:	00b60633          	add	x12,x12,x11
    1064:	01871713          	slli	x14,x14,0x18
    1068:	01261613          	slli	x12,x12,0x12
    106c:	01467633          	and	x12,x12,x20
    1070:	01b77733          	and	x14,x14,x27
    1074:	00469693          	slli	x13,x13,0x4
    1078:	00c76733          	or	x14,x14,x12
    107c:	0136f6b3          	and	x13,x13,x19
    1080:	00f4f493          	andi	x9,x9,15
    1084:	00d76733          	or	x14,x14,x13
    1088:	00976733          	or	x14,x14,x9
    108c:	d0eba623          	sw	x14,-756(x23) # 40000d0c <_bsg_elf_vcache_size+0x3ffe0d0c>
                        rc = kernel_matrix_multiply_transpose_nomul_unroll_init<8>(A_local, B_local, C_local,
    1090:	fa842683          	lw	x13,-88(x8)
    1094:	fa442703          	lw	x14,-92(x8)
    1098:	fb842603          	lw	x12,-72(x8)
    109c:	fb042583          	lw	x11,-80(x8)
    10a0:	fb442503          	lw	x10,-76(x8)
    10a4:	faf42e23          	sw	x15,-68(x8)
                for(int i = 0; i <= iter; ++i){
    10a8:	00190913          	addi	x18,x18,1
                        rc = kernel_matrix_multiply_transpose_nomul_unroll_init<8>(A_local, B_local, C_local,
    10ac:	131000ef          	jal	x1,19dc <_Z50kernel_matrix_multiply_transpose_nomul_unroll_initILj8EiiiEiPT0_PT1_PT2_mmm>
                        bsg_cuda_print_stat_end(temp);
    10b0:	014d2583          	lw	x11,20(x26)
    10b4:	020ca703          	lw	x14,32(x25)
    10b8:	000aa603          	lw	x12,0(x21)
    10bc:	018c2683          	lw	x13,24(x24)
    10c0:	024b2383          	lw	x7,36(x22)
    10c4:	00e58733          	add	x14,x11,x14
    10c8:	00461613          	slli	x12,x12,0x4
    10cc:	01871713          	slli	x14,x14,0x18
    10d0:	01367633          	and	x12,x12,x19
    10d4:	007686b3          	add	x13,x13,x7
    10d8:	01b77733          	and	x14,x14,x27
    10dc:	009664b3          	or	x9,x12,x9
    10e0:	01269693          	slli	x13,x13,0x12
    10e4:	009764b3          	or	x9,x14,x9
    10e8:	0146f6b3          	and	x13,x13,x20
    10ec:	400007b7          	lui	x15,0x40000
    10f0:	00d4e4b3          	or	x9,x9,x13
                for(int i = 0; i <= iter; ++i){
    10f4:	fac42703          	lw	x14,-84(x8)
                        bsg_cuda_print_stat_end(temp);
    10f8:	00f4e4b3          	or	x9,x9,x15
    10fc:	d09ba623          	sw	x9,-756(x23)
                for(int i = 0; i <= iter; ++i){
    1100:	fbc42783          	lw	x15,-68(x8)
                        rc = kernel_matrix_multiply_transpose_nomul_unroll_init<8>(A_local, B_local, C_local,
    1104:	00050493          	mv	x9,x10
                for(int i = 0; i <= iter; ++i){
    1108:	f2e91ee3          	bne	x18,x14,1044 <_tls_data+0x4>
                memcpy (C, C_local, sizeof(C[0])*A_HEIGHT*B_WIDTH);
    110c:	f9c42603          	lw	x12,-100(x8)
    1110:	fb842583          	lw	x11,-72(x8)
    1114:	f9842503          	lw	x10,-104(x8)
    1118:	6ac000ef          	jal	x1,17c4 <memcpy>
        }
    111c:	f9040113          	addi	x2,x8,-112
    1120:	06c12083          	lw	x1,108(x2)
    1124:	00048513          	mv	x10,x9
    1128:	06812403          	lw	x8,104(x2)
    112c:	06412483          	lw	x9,100(x2)
    1130:	06012903          	lw	x18,96(x2)
    1134:	05c12983          	lw	x19,92(x2)
    1138:	05812a03          	lw	x20,88(x2)
    113c:	05412a83          	lw	x21,84(x2)
    1140:	05012b03          	lw	x22,80(x2)
    1144:	04c12b83          	lw	x23,76(x2)
    1148:	04812c03          	lw	x24,72(x2)
    114c:	04412c83          	lw	x25,68(x2)
    1150:	04012d03          	lw	x26,64(x2)
    1154:	03c12d83          	lw	x27,60(x2)
    1158:	07010113          	addi	x2,x2,112
    115c:	00008067          	ret

00001160 <kernel_matrix_multiply_int16>:
                      uint32_t B_WIDTH, uint32_t tag, uint32_t iter) {
    1160:	f9010113          	addi	x2,x2,-112
    1164:	06112623          	sw	x1,108(x2)
    1168:	06812423          	sw	x8,104(x2)
    116c:	06912223          	sw	x9,100(x2)
    1170:	07010413          	addi	x8,x2,112
    1174:	07212023          	sw	x18,96(x2)
    1178:	05312e23          	sw	x19,92(x2)
    117c:	05412c23          	sw	x20,88(x2)
    1180:	05512a23          	sw	x21,84(x2)
    1184:	05612823          	sw	x22,80(x2)
    1188:	05712623          	sw	x23,76(x2)
    118c:	05812423          	sw	x24,72(x2)
    1190:	05912223          	sw	x25,68(x2)
    1194:	05a12023          	sw	x26,64(x2)
    1198:	03b12e23          	sw	x27,60(x2)
    119c:	00070e13          	mv	x28,x14
    11a0:	fae42223          	sw	x14,-92(x8)
                int16_t A_local[A_HEIGHT * A_WIDTH];
    11a4:	02d70733          	mul	x14,x14,x13
                      uint32_t B_WIDTH, uint32_t tag, uint32_t iter) {
    11a8:	00068e93          	mv	x29,x13
    11ac:	fad42423          	sw	x13,-88(x8)
    11b0:	00179693          	slli	x13,x15,0x1
    11b4:	faf42e23          	sw	x15,-68(x8)
    11b8:	00060313          	mv	x6,x12
    11bc:	00058493          	mv	x9,x11
                memcpy (A_local, A, sizeof(A[0])*A_HEIGHT*A_WIDTH);
    11c0:	00050593          	mv	x11,x10
                      uint32_t B_WIDTH, uint32_t tag, uint32_t iter) {
    11c4:	f8642c23          	sw	x6,-104(x8)
    11c8:	fb042023          	sw	x16,-96(x8)
                int16_t B_local[A_WIDTH * B_WIDTH];
    11cc:	02de09b3          	mul	x19,x28,x13
                int16_t A_local[A_HEIGHT * A_WIDTH];
    11d0:	00171613          	slli	x12,x14,0x1
    11d4:	00f60713          	addi	x14,x12,15
    11d8:	ff077713          	andi	x14,x14,-16
    11dc:	40e10133          	sub	x2,x2,x14
    11e0:	00010513          	mv	x10,x2
    11e4:	faa42a23          	sw	x10,-76(x8)
                for(int i = 0; i <= iter; ++i){
    11e8:	00000913          	li	x18,0
    11ec:	00001d37          	lui	x26,0x1
    11f0:	00001cb7          	lui	x25,0x1
                int16_t C_local[A_HEIGHT * B_WIDTH];
    11f4:	02de87b3          	mul	x15,x29,x13
                int16_t B_local[A_WIDTH * B_WIDTH];
    11f8:	00f98713          	addi	x14,x19,15
    11fc:	ff077713          	andi	x14,x14,-16
    1200:	40e10133          	sub	x2,x2,x14
    1204:	00188713          	addi	x14,x17,1
    1208:	fae42623          	sw	x14,-84(x8)
    120c:	00010a13          	mv	x20,x2
    1210:	fb442823          	sw	x20,-80(x8)
                int16_t C_local[A_HEIGHT * B_WIDTH];
    1214:	00001c37          	lui	x24,0x1
    1218:	00001b37          	lui	x22,0x1
    121c:	00f78713          	addi	x14,x15,15 # 4000000f <_bsg_elf_vcache_size+0x3ffe000f>
    1220:	ff077713          	andi	x14,x14,-16
    1224:	40e10133          	sub	x2,x2,x14
    1228:	f8f42e23          	sw	x15,-100(x8)
                memcpy (A_local, A, sizeof(A[0])*A_HEIGHT*A_WIDTH);
    122c:	598000ef          	jal	x1,17c4 <memcpy>
                memcpy (B_local, B, sizeof(B[0])*A_WIDTH*B_WIDTH);
    1230:	00098613          	mv	x12,x19
    1234:	00048593          	mv	x11,x9
    1238:	000a0513          	mv	x10,x20
    123c:	588000ef          	jal	x1,17c4 <memcpy>
                        bsg_cuda_print_stat_start(temp);
    1240:	000409b7          	lui	x19,0x40
    1244:	fbc42783          	lw	x15,-68(x8)
                int16_t C_local[A_HEIGHT * B_WIDTH];
    1248:	fa242c23          	sw	x2,-72(x8)
                int rc, temp = IGNORE_TAG;
    124c:	00000493          	li	x9,0
    1250:	00001ab7          	lui	x21,0x1
                        bsg_cuda_print_stat_start(temp);
    1254:	3f000db7          	lui	x27,0x3f000
    1258:	00fc0a37          	lui	x20,0xfc0
    125c:	ff098993          	addi	x19,x19,-16 # 3fff0 <_bsg_elf_vcache_size+0x1fff0>
    1260:	40001bb7          	lui	x23,0x40001
    1264:	0080006f          	j	126c <kernel_matrix_multiply_int16+0x10c>
                        temp = tag;
    1268:	fa042483          	lw	x9,-96(x8)
                        bsg_cuda_print_stat_start(temp);
    126c:	020ca503          	lw	x10,32(x25) # 1020 <__bsg_y>
    1270:	024b2583          	lw	x11,36(x22) # 1024 <__bsg_x>
    1274:	014d2703          	lw	x14,20(x26) # 1014 <__bsg_grp_org_y>
    1278:	018c2603          	lw	x12,24(x24) # 1018 <__bsg_grp_org_x>
    127c:	000aa683          	lw	x13,0(x21) # 1000 <_bsg_data_start_addr>
    1280:	00a70733          	add	x14,x14,x10
    1284:	00b60633          	add	x12,x12,x11
    1288:	01871713          	slli	x14,x14,0x18
    128c:	01261613          	slli	x12,x12,0x12
    1290:	01467633          	and	x12,x12,x20
    1294:	01b77733          	and	x14,x14,x27
    1298:	00469693          	slli	x13,x13,0x4
    129c:	00c76733          	or	x14,x14,x12
    12a0:	0136f6b3          	and	x13,x13,x19
    12a4:	00f4f493          	andi	x9,x9,15
    12a8:	00d76733          	or	x14,x14,x13
    12ac:	00976733          	or	x14,x14,x9
    12b0:	d0eba623          	sw	x14,-756(x23) # 40000d0c <_bsg_elf_vcache_size+0x3ffe0d0c>
                        rc = kernel_matrix_multiply_transpose_nomul_unroll_init<8>(A_local, B_local, C_local,
    12b4:	fa842683          	lw	x13,-88(x8)
    12b8:	fa442703          	lw	x14,-92(x8)
    12bc:	fb842603          	lw	x12,-72(x8)
    12c0:	fb042583          	lw	x11,-80(x8)
    12c4:	fb442503          	lw	x10,-76(x8)
    12c8:	faf42e23          	sw	x15,-68(x8)
                for(int i = 0; i <= iter; ++i){
    12cc:	00190913          	addi	x18,x18,1
                        rc = kernel_matrix_multiply_transpose_nomul_unroll_init<8>(A_local, B_local, C_local,
    12d0:	1ad000ef          	jal	x1,1c7c <_Z50kernel_matrix_multiply_transpose_nomul_unroll_initILj8EsssEiPT0_PT1_PT2_mmm>
                        bsg_cuda_print_stat_end(temp);
    12d4:	014d2583          	lw	x11,20(x26)
    12d8:	020ca703          	lw	x14,32(x25)
    12dc:	000aa603          	lw	x12,0(x21)
    12e0:	018c2683          	lw	x13,24(x24)
    12e4:	024b2383          	lw	x7,36(x22)
    12e8:	00e58733          	add	x14,x11,x14
    12ec:	00461613          	slli	x12,x12,0x4
    12f0:	01871713          	slli	x14,x14,0x18
    12f4:	01367633          	and	x12,x12,x19
    12f8:	007686b3          	add	x13,x13,x7
    12fc:	01b77733          	and	x14,x14,x27
    1300:	009664b3          	or	x9,x12,x9
    1304:	01269693          	slli	x13,x13,0x12
    1308:	009764b3          	or	x9,x14,x9
    130c:	0146f6b3          	and	x13,x13,x20
    1310:	400007b7          	lui	x15,0x40000
    1314:	00d4e4b3          	or	x9,x9,x13
                for(int i = 0; i <= iter; ++i){
    1318:	fac42703          	lw	x14,-84(x8)
                        bsg_cuda_print_stat_end(temp);
    131c:	00f4e4b3          	or	x9,x9,x15
    1320:	d09ba623          	sw	x9,-756(x23)
                for(int i = 0; i <= iter; ++i){
    1324:	fbc42783          	lw	x15,-68(x8)
                        rc = kernel_matrix_multiply_transpose_nomul_unroll_init<8>(A_local, B_local, C_local,
    1328:	00050493          	mv	x9,x10
                for(int i = 0; i <= iter; ++i){
    132c:	f2e91ee3          	bne	x18,x14,1268 <kernel_matrix_multiply_int16+0x108>
                memcpy (C, C_local, sizeof(C[0])*A_HEIGHT*B_WIDTH);
    1330:	f9c42603          	lw	x12,-100(x8)
    1334:	fb842583          	lw	x11,-72(x8)
    1338:	f9842503          	lw	x10,-104(x8)
    133c:	488000ef          	jal	x1,17c4 <memcpy>
        }
    1340:	f9040113          	addi	x2,x8,-112
    1344:	06c12083          	lw	x1,108(x2)
    1348:	00048513          	mv	x10,x9
    134c:	06812403          	lw	x8,104(x2)
    1350:	06412483          	lw	x9,100(x2)
    1354:	06012903          	lw	x18,96(x2)
    1358:	05c12983          	lw	x19,92(x2)
    135c:	05812a03          	lw	x20,88(x2)
    1360:	05412a83          	lw	x21,84(x2)
    1364:	05012b03          	lw	x22,80(x2)
    1368:	04c12b83          	lw	x23,76(x2)
    136c:	04812c03          	lw	x24,72(x2)
    1370:	04412c83          	lw	x25,68(x2)
    1374:	04012d03          	lw	x26,64(x2)
    1378:	03c12d83          	lw	x27,60(x2)
    137c:	07010113          	addi	x2,x2,112
    1380:	00008067          	ret

00001384 <kernel_matrix_multiply_int8>:
                      uint32_t B_WIDTH, uint32_t tag, uint32_t iter) {
    1384:	f9010113          	addi	x2,x2,-112
    1388:	06112623          	sw	x1,108(x2)
    138c:	06812423          	sw	x8,104(x2)
    1390:	06912223          	sw	x9,100(x2)
    1394:	07010413          	addi	x8,x2,112
    1398:	07212023          	sw	x18,96(x2)
    139c:	05312e23          	sw	x19,92(x2)
    13a0:	05412c23          	sw	x20,88(x2)
    13a4:	05512a23          	sw	x21,84(x2)
    13a8:	05612823          	sw	x22,80(x2)
    13ac:	05712623          	sw	x23,76(x2)
    13b0:	05812423          	sw	x24,72(x2)
    13b4:	05912223          	sw	x25,68(x2)
    13b8:	05a12023          	sw	x26,64(x2)
    13bc:	03b12e23          	sw	x27,60(x2)
    13c0:	00068313          	mv	x6,x13
    13c4:	fad42823          	sw	x13,-80(x8)
                int8_t A_local[A_HEIGHT * A_WIDTH];
    13c8:	02d706b3          	mul	x13,x14,x13
                      uint32_t B_WIDTH, uint32_t tag, uint32_t iter) {
    13cc:	00078e13          	mv	x28,x15
                int8_t B_local[A_WIDTH * B_WIDTH];
    13d0:	fae42e23          	sw	x14,-68(x8)
                      uint32_t B_WIDTH, uint32_t tag, uint32_t iter) {
    13d4:	faf42623          	sw	x15,-84(x8)
    13d8:	00058493          	mv	x9,x11
                memcpy (A_local, A, sizeof(A[0])*A_HEIGHT*A_WIDTH);
    13dc:	00050593          	mv	x11,x10
                      uint32_t B_WIDTH, uint32_t tag, uint32_t iter) {
    13e0:	f8c42c23          	sw	x12,-104(x8)
    13e4:	fb042023          	sw	x16,-96(x8)
                for(int i = 0; i <= iter; ++i){
    13e8:	00000913          	li	x18,0
    13ec:	00001d37          	lui	x26,0x1
                int8_t B_local[A_WIDTH * B_WIDTH];
    13f0:	02f709b3          	mul	x19,x14,x15
                int8_t A_local[A_HEIGHT * A_WIDTH];
    13f4:	00f68793          	addi	x15,x13,15 # 2000000f <_bsg_elf_vcache_size+0x1ffe000f>
    13f8:	ff07f793          	andi	x15,x15,-16
    13fc:	40f10133          	sub	x2,x2,x15
    1400:	00188793          	addi	x15,x17,1
    1404:	faf42a23          	sw	x15,-76(x8)
    1408:	00010513          	mv	x10,x2
                memcpy (A_local, A, sizeof(A[0])*A_HEIGHT*A_WIDTH);
    140c:	00068613          	mv	x12,x13
                int8_t A_local[A_HEIGHT * A_WIDTH];
    1410:	faa42423          	sw	x10,-88(x8)
                int8_t B_local[A_WIDTH * B_WIDTH];
    1414:	00001cb7          	lui	x25,0x1
                int8_t C_local[A_HEIGHT * B_WIDTH];
    1418:	03c30733          	mul	x14,x6,x28
                int8_t B_local[A_WIDTH * B_WIDTH];
    141c:	00f98793          	addi	x15,x19,15
    1420:	ff07f793          	andi	x15,x15,-16
    1424:	40f10133          	sub	x2,x2,x15
    1428:	00010b13          	mv	x22,x2
    142c:	fb642223          	sw	x22,-92(x8)
                int8_t C_local[A_HEIGHT * B_WIDTH];
    1430:	00001c37          	lui	x24,0x1
    1434:	00001ab7          	lui	x21,0x1
    1438:	00001a37          	lui	x20,0x1
                        bsg_cuda_print_stat_start(temp);
    143c:	3f000db7          	lui	x27,0x3f000
                int8_t C_local[A_HEIGHT * B_WIDTH];
    1440:	00f70793          	addi	x15,x14,15
    1444:	ff07f793          	andi	x15,x15,-16
    1448:	40f10133          	sub	x2,x2,x15
    144c:	f8e42e23          	sw	x14,-100(x8)
                memcpy (A_local, A, sizeof(A[0])*A_HEIGHT*A_WIDTH);
    1450:	374000ef          	jal	x1,17c4 <memcpy>
                memcpy (B_local, B, sizeof(B[0])*A_WIDTH*B_WIDTH);
    1454:	00098613          	mv	x12,x19
    1458:	00048593          	mv	x11,x9
    145c:	000b0513          	mv	x10,x22
    1460:	364000ef          	jal	x1,17c4 <memcpy>
                        bsg_cuda_print_stat_start(temp);
    1464:	000409b7          	lui	x19,0x40
    1468:	fbc42703          	lw	x14,-68(x8)
                int8_t C_local[A_HEIGHT * B_WIDTH];
    146c:	fa242c23          	sw	x2,-72(x8)
                int rc, temp = IGNORE_TAG;
    1470:	00000493          	li	x9,0
                        bsg_cuda_print_stat_start(temp);
    1474:	00fc0b37          	lui	x22,0xfc0
    1478:	ff098993          	addi	x19,x19,-16 # 3fff0 <_bsg_elf_vcache_size+0x1fff0>
    147c:	40001bb7          	lui	x23,0x40001
    1480:	0080006f          	j	1488 <kernel_matrix_multiply_int8+0x104>
                        temp = tag;
    1484:	fa042483          	lw	x9,-96(x8)
                        bsg_cuda_print_stat_start(temp);
    1488:	020ca503          	lw	x10,32(x25) # 1020 <__bsg_y>
    148c:	024aa583          	lw	x11,36(x21) # 1024 <__bsg_x>
    1490:	014d2783          	lw	x15,20(x26) # 1014 <__bsg_grp_org_y>
    1494:	018c2603          	lw	x12,24(x24) # 1018 <__bsg_grp_org_x>
    1498:	000a2683          	lw	x13,0(x20) # 1000 <_bsg_data_start_addr>
    149c:	00a787b3          	add	x15,x15,x10
    14a0:	00b60633          	add	x12,x12,x11
    14a4:	01879793          	slli	x15,x15,0x18
    14a8:	01261613          	slli	x12,x12,0x12
    14ac:	01667633          	and	x12,x12,x22
    14b0:	01b7f7b3          	and	x15,x15,x27
    14b4:	00469693          	slli	x13,x13,0x4
    14b8:	00c7e7b3          	or	x15,x15,x12
    14bc:	0136f6b3          	and	x13,x13,x19
    14c0:	00f4f493          	andi	x9,x9,15
    14c4:	00d7e7b3          	or	x15,x15,x13
    14c8:	0097e7b3          	or	x15,x15,x9
    14cc:	d0fba623          	sw	x15,-756(x23) # 40000d0c <_bsg_elf_vcache_size+0x3ffe0d0c>
                        rc = kernel_matrix_multiply_transpose_nomul_unroll_init<8>(A_local, B_local, C_local,
    14d0:	fb042683          	lw	x13,-80(x8)
    14d4:	fac42783          	lw	x15,-84(x8)
    14d8:	fb842603          	lw	x12,-72(x8)
    14dc:	fa442583          	lw	x11,-92(x8)
    14e0:	fa842503          	lw	x10,-88(x8)
    14e4:	fae42e23          	sw	x14,-68(x8)
                for(int i = 0; i <= iter; ++i){
    14e8:	00190913          	addi	x18,x18,1
                        rc = kernel_matrix_multiply_transpose_nomul_unroll_init<8>(A_local, B_local, C_local,
    14ec:	269000ef          	jal	x1,1f54 <_Z50kernel_matrix_multiply_transpose_nomul_unroll_initILj8EaaaEiPT0_PT1_PT2_mmm>
                        bsg_cuda_print_stat_end(temp);
    14f0:	014d2583          	lw	x11,20(x26)
    14f4:	020ca783          	lw	x15,32(x25)
    14f8:	000a2603          	lw	x12,0(x20)
    14fc:	018c2683          	lw	x13,24(x24)
    1500:	024aa383          	lw	x7,36(x21)
    1504:	00f587b3          	add	x15,x11,x15
    1508:	00461613          	slli	x12,x12,0x4
    150c:	01879793          	slli	x15,x15,0x18
    1510:	01367633          	and	x12,x12,x19
    1514:	007686b3          	add	x13,x13,x7
    1518:	01b7f7b3          	and	x15,x15,x27
    151c:	009664b3          	or	x9,x12,x9
    1520:	01269693          	slli	x13,x13,0x12
    1524:	0097e4b3          	or	x9,x15,x9
    1528:	0166f6b3          	and	x13,x13,x22
    152c:	400007b7          	lui	x15,0x40000
    1530:	00d4e4b3          	or	x9,x9,x13
    1534:	00f4e4b3          	or	x9,x9,x15
                for(int i = 0; i <= iter; ++i){
    1538:	fb442783          	lw	x15,-76(x8)
                        bsg_cuda_print_stat_end(temp);
    153c:	d09ba623          	sw	x9,-756(x23)
                for(int i = 0; i <= iter; ++i){
    1540:	fbc42703          	lw	x14,-68(x8)
                        rc = kernel_matrix_multiply_transpose_nomul_unroll_init<8>(A_local, B_local, C_local,
    1544:	00050493          	mv	x9,x10
                for(int i = 0; i <= iter; ++i){
    1548:	f2f91ee3          	bne	x18,x15,1484 <kernel_matrix_multiply_int8+0x100>
                }

                memcpy (C, C_local, sizeof(C[0])*A_HEIGHT*B_WIDTH);
    154c:	f9c42603          	lw	x12,-100(x8)
    1550:	fb842583          	lw	x11,-72(x8)
    1554:	f9842503          	lw	x10,-104(x8)
    1558:	26c000ef          	jal	x1,17c4 <memcpy>

                return rc;
        }
    155c:	f9040113          	addi	x2,x8,-112
    1560:	06c12083          	lw	x1,108(x2)
    1564:	00048513          	mv	x10,x9
    1568:	06812403          	lw	x8,104(x2)
    156c:	06412483          	lw	x9,100(x2)
    1570:	06012903          	lw	x18,96(x2)
    1574:	05c12983          	lw	x19,92(x2)
    1578:	05812a03          	lw	x20,88(x2)
    157c:	05412a83          	lw	x21,84(x2)
    1580:	05012b03          	lw	x22,80(x2)
    1584:	04c12b83          	lw	x23,76(x2)
    1588:	04812c03          	lw	x24,72(x2)
    158c:	04412c83          	lw	x25,68(x2)
    1590:	04012d03          	lw	x26,64(x2)
    1594:	03c12d83          	lw	x27,60(x2)
    1598:	07010113          	addi	x2,x2,112
    159c:	00008067          	ret

000015a0 <kernel_matrix_multiply_float>:
        int  __attribute__ ((noinline)) kernel_matrix_multiply_float(
                      float *A, float *B, float *C,
                      uint32_t A_HEIGHT, uint32_t A_WIDTH,
                      uint32_t B_WIDTH, uint32_t tag, uint32_t iter) {
    15a0:	f9010113          	addi	x2,x2,-112
    15a4:	06112623          	sw	x1,108(x2)
    15a8:	06812423          	sw	x8,104(x2)
    15ac:	06912223          	sw	x9,100(x2)
    15b0:	07010413          	addi	x8,x2,112
    15b4:	07212023          	sw	x18,96(x2)
    15b8:	05312e23          	sw	x19,92(x2)
    15bc:	05412c23          	sw	x20,88(x2)
    15c0:	05512a23          	sw	x21,84(x2)
    15c4:	05612823          	sw	x22,80(x2)
    15c8:	05712623          	sw	x23,76(x2)
    15cc:	05812423          	sw	x24,72(x2)
    15d0:	05912223          	sw	x25,68(x2)
    15d4:	05a12023          	sw	x26,64(x2)
    15d8:	03b12e23          	sw	x27,60(x2)
    15dc:	00070e13          	mv	x28,x14
    15e0:	fae42223          	sw	x14,-92(x8)
                int rc, temp = IGNORE_TAG;

                // These arrays are resident in DMEM
                float A_local[A_HEIGHT * A_WIDTH];
    15e4:	02d70733          	mul	x14,x14,x13
                      uint32_t B_WIDTH, uint32_t tag, uint32_t iter) {
    15e8:	00068e93          	mv	x29,x13
    15ec:	fad42423          	sw	x13,-88(x8)
    15f0:	00279693          	slli	x13,x15,0x2
    15f4:	faf42e23          	sw	x15,-68(x8)
    15f8:	00060313          	mv	x6,x12
    15fc:	00058493          	mv	x9,x11
                float B_local[A_WIDTH * B_WIDTH];
                float C_local[A_HEIGHT * B_WIDTH];

                memcpy (A_local, A, sizeof(A[0])*A_HEIGHT*A_WIDTH);
    1600:	00050593          	mv	x11,x10
                      uint32_t B_WIDTH, uint32_t tag, uint32_t iter) {
    1604:	f8642c23          	sw	x6,-104(x8)
    1608:	fb042023          	sw	x16,-96(x8)
                float B_local[A_WIDTH * B_WIDTH];
    160c:	02de09b3          	mul	x19,x28,x13
                float A_local[A_HEIGHT * A_WIDTH];
    1610:	00271613          	slli	x12,x14,0x2
    1614:	00f60713          	addi	x14,x12,15
    1618:	ff077713          	andi	x14,x14,-16
    161c:	40e10133          	sub	x2,x2,x14
    1620:	00010513          	mv	x10,x2
    1624:	faa42a23          	sw	x10,-76(x8)
                memcpy (B_local, B, sizeof(B[0])*A_WIDTH*B_WIDTH);

                for(int i = 0; i <= iter; ++i){
    1628:	00000913          	li	x18,0
    162c:	00001d37          	lui	x26,0x1
    1630:	00001cb7          	lui	x25,0x1
                float C_local[A_HEIGHT * B_WIDTH];
    1634:	02de87b3          	mul	x15,x29,x13
                float B_local[A_WIDTH * B_WIDTH];
    1638:	00f98713          	addi	x14,x19,15
    163c:	ff077713          	andi	x14,x14,-16
    1640:	40e10133          	sub	x2,x2,x14
    1644:	00188713          	addi	x14,x17,1
    1648:	fae42623          	sw	x14,-84(x8)
    164c:	00010a13          	mv	x20,x2
    1650:	fb442823          	sw	x20,-80(x8)
                float C_local[A_HEIGHT * B_WIDTH];
    1654:	00001c37          	lui	x24,0x1
    1658:	00001b37          	lui	x22,0x1
    165c:	00f78713          	addi	x14,x15,15 # 4000000f <_bsg_elf_vcache_size+0x3ffe000f>
    1660:	ff077713          	andi	x14,x14,-16
    1664:	40e10133          	sub	x2,x2,x14
    1668:	f8f42e23          	sw	x15,-100(x8)
                memcpy (A_local, A, sizeof(A[0])*A_HEIGHT*A_WIDTH);
    166c:	158000ef          	jal	x1,17c4 <memcpy>
                memcpy (B_local, B, sizeof(B[0])*A_WIDTH*B_WIDTH);
    1670:	00098613          	mv	x12,x19
    1674:	00048593          	mv	x11,x9
    1678:	000a0513          	mv	x10,x20
    167c:	148000ef          	jal	x1,17c4 <memcpy>
                        bsg_cuda_print_stat_start(temp);
    1680:	000409b7          	lui	x19,0x40
    1684:	fbc42783          	lw	x15,-68(x8)
                float C_local[A_HEIGHT * B_WIDTH];
    1688:	fa242c23          	sw	x2,-72(x8)
                int rc, temp = IGNORE_TAG;
    168c:	00000493          	li	x9,0
    1690:	00001ab7          	lui	x21,0x1
                        bsg_cuda_print_stat_start(temp);
    1694:	3f000db7          	lui	x27,0x3f000
    1698:	00fc0a37          	lui	x20,0xfc0
    169c:	ff098993          	addi	x19,x19,-16 # 3fff0 <_bsg_elf_vcache_size+0x1fff0>
    16a0:	40001bb7          	lui	x23,0x40001
    16a4:	0080006f          	j	16ac <kernel_matrix_multiply_float+0x10c>
                        rc = kernel_matrix_multiply_transpose_nomul_unroll_init<8>(A_local, B_local, C_local,
                                                                                   A_HEIGHT, A_WIDTH, B_WIDTH);
                        bsg_cuda_print_stat_end(temp);
                        temp = tag;
    16a8:	fa042483          	lw	x9,-96(x8)
                        bsg_cuda_print_stat_start(temp);
    16ac:	020ca503          	lw	x10,32(x25) # 1020 <__bsg_y>
    16b0:	024b2583          	lw	x11,36(x22) # 1024 <__bsg_x>
    16b4:	014d2703          	lw	x14,20(x26) # 1014 <__bsg_grp_org_y>
    16b8:	018c2603          	lw	x12,24(x24) # 1018 <__bsg_grp_org_x>
    16bc:	000aa683          	lw	x13,0(x21) # 1000 <_bsg_data_start_addr>
    16c0:	00a70733          	add	x14,x14,x10
    16c4:	00b60633          	add	x12,x12,x11
    16c8:	01871713          	slli	x14,x14,0x18
    16cc:	01261613          	slli	x12,x12,0x12
    16d0:	01467633          	and	x12,x12,x20
    16d4:	01b77733          	and	x14,x14,x27
    16d8:	00469693          	slli	x13,x13,0x4
    16dc:	00c76733          	or	x14,x14,x12
    16e0:	0136f6b3          	and	x13,x13,x19
    16e4:	00f4f493          	andi	x9,x9,15
    16e8:	00d76733          	or	x14,x14,x13
    16ec:	00976733          	or	x14,x14,x9
    16f0:	d0eba623          	sw	x14,-756(x23) # 40000d0c <_bsg_elf_vcache_size+0x3ffe0d0c>
                        rc = kernel_matrix_multiply_transpose_nomul_unroll_init<8>(A_local, B_local, C_local,
    16f4:	fa842683          	lw	x13,-88(x8)
    16f8:	fa442703          	lw	x14,-92(x8)
    16fc:	fb842603          	lw	x12,-72(x8)
    1700:	fb042583          	lw	x11,-80(x8)
    1704:	fb442503          	lw	x10,-76(x8)
    1708:	faf42e23          	sw	x15,-68(x8)
                for(int i = 0; i <= iter; ++i){
    170c:	00190913          	addi	x18,x18,1
                        rc = kernel_matrix_multiply_transpose_nomul_unroll_init<8>(A_local, B_local, C_local,
    1710:	2e5000ef          	jal	x1,21f4 <_Z50kernel_matrix_multiply_transpose_nomul_unroll_initILj8EfffEiPT0_PT1_PT2_mmm>
                        bsg_cuda_print_stat_end(temp);
    1714:	014d2583          	lw	x11,20(x26)
    1718:	020ca703          	lw	x14,32(x25)
    171c:	000aa603          	lw	x12,0(x21)
    1720:	018c2683          	lw	x13,24(x24)
    1724:	024b2383          	lw	x7,36(x22)
    1728:	00e58733          	add	x14,x11,x14
    172c:	00461613          	slli	x12,x12,0x4
    1730:	01871713          	slli	x14,x14,0x18
    1734:	01367633          	and	x12,x12,x19
    1738:	007686b3          	add	x13,x13,x7
    173c:	01b77733          	and	x14,x14,x27
    1740:	009664b3          	or	x9,x12,x9
    1744:	01269693          	slli	x13,x13,0x12
    1748:	009764b3          	or	x9,x14,x9
    174c:	0146f6b3          	and	x13,x13,x20
    1750:	400007b7          	lui	x15,0x40000
    1754:	00d4e4b3          	or	x9,x9,x13
                for(int i = 0; i <= iter; ++i){
    1758:	fac42703          	lw	x14,-84(x8)
                        bsg_cuda_print_stat_end(temp);
    175c:	00f4e4b3          	or	x9,x9,x15
    1760:	d09ba623          	sw	x9,-756(x23)
                for(int i = 0; i <= iter; ++i){
    1764:	fbc42783          	lw	x15,-68(x8)
                        rc = kernel_matrix_multiply_transpose_nomul_unroll_init<8>(A_local, B_local, C_local,
    1768:	00050493          	mv	x9,x10
                for(int i = 0; i <= iter; ++i){
    176c:	f2e91ee3          	bne	x18,x14,16a8 <kernel_matrix_multiply_float+0x108>
                }

                memcpy (C, C_local, sizeof(C[0])*A_HEIGHT*B_WIDTH);
    1770:	f9c42603          	lw	x12,-100(x8)
    1774:	fb842583          	lw	x11,-72(x8)
    1778:	f9842503          	lw	x10,-104(x8)
    177c:	048000ef          	jal	x1,17c4 <memcpy>

                return rc;
        }
    1780:	f9040113          	addi	x2,x8,-112
    1784:	06c12083          	lw	x1,108(x2)
    1788:	00048513          	mv	x10,x9
    178c:	06812403          	lw	x8,104(x2)
    1790:	06412483          	lw	x9,100(x2)
    1794:	06012903          	lw	x18,96(x2)
    1798:	05c12983          	lw	x19,92(x2)
    179c:	05812a03          	lw	x20,88(x2)
    17a0:	05412a83          	lw	x21,84(x2)
    17a4:	05012b03          	lw	x22,80(x2)
    17a8:	04c12b83          	lw	x23,76(x2)
    17ac:	04812c03          	lw	x24,72(x2)
    17b0:	04412c83          	lw	x25,68(x2)
    17b4:	04012d03          	lw	x26,64(x2)
    17b8:	03c12d83          	lw	x27,60(x2)
    17bc:	07010113          	addi	x2,x2,112
    17c0:	00008067          	ret

000017c4 <memcpy>:
    17c4:	00a5c7b3          	xor	x15,x11,x10
    17c8:	0037f793          	andi	x15,x15,3
    17cc:	00c508b3          	add	x17,x10,x12
    17d0:	06079263          	bnez	x15,1834 <_gp+0x34>
    17d4:	00300793          	li	x15,3
    17d8:	04c7fe63          	bgeu	x15,x12,1834 <_gp+0x34>
    17dc:	00357793          	andi	x15,x10,3
    17e0:	00050713          	mv	x14,x10
    17e4:	06079863          	bnez	x15,1854 <_gp+0x54>
    17e8:	ffc8f613          	andi	x12,x17,-4
    17ec:	fe060793          	addi	x15,x12,-32
    17f0:	08f76c63          	bltu	x14,x15,1888 <_gp+0x88>
    17f4:	02c77c63          	bgeu	x14,x12,182c <_gp+0x2c>
    17f8:	00058693          	mv	x13,x11
    17fc:	00070793          	mv	x15,x14
    1800:	0006a803          	lw	x16,0(x13)
    1804:	00478793          	addi	x15,x15,4 # 40000004 <_bsg_elf_vcache_size+0x3ffe0004>
    1808:	00468693          	addi	x13,x13,4
    180c:	ff07ae23          	sw	x16,-4(x15)
    1810:	fec7e8e3          	bltu	x15,x12,1800 <_gp>
    1814:	fff60793          	addi	x15,x12,-1
    1818:	40e787b3          	sub	x15,x15,x14
    181c:	ffc7f793          	andi	x15,x15,-4
    1820:	00478793          	addi	x15,x15,4
    1824:	00f70733          	add	x14,x14,x15
    1828:	00f585b3          	add	x11,x11,x15
    182c:	01176863          	bltu	x14,x17,183c <_gp+0x3c>
    1830:	00008067          	ret
    1834:	00050713          	mv	x14,x10
    1838:	ff157ce3          	bgeu	x10,x17,1830 <_gp+0x30>
    183c:	0005c783          	lbu	x15,0(x11)
    1840:	00170713          	addi	x14,x14,1
    1844:	00158593          	addi	x11,x11,1
    1848:	fef70fa3          	sb	x15,-1(x14)
    184c:	ff1768e3          	bltu	x14,x17,183c <_gp+0x3c>
    1850:	00008067          	ret
    1854:	0005c683          	lbu	x13,0(x11)
    1858:	00170713          	addi	x14,x14,1
    185c:	00377793          	andi	x15,x14,3
    1860:	fed70fa3          	sb	x13,-1(x14)
    1864:	00158593          	addi	x11,x11,1
    1868:	f80780e3          	beqz	x15,17e8 <memcpy+0x24>
    186c:	0005c683          	lbu	x13,0(x11)
    1870:	00170713          	addi	x14,x14,1
    1874:	00377793          	andi	x15,x14,3
    1878:	fed70fa3          	sb	x13,-1(x14)
    187c:	00158593          	addi	x11,x11,1
    1880:	fc079ae3          	bnez	x15,1854 <_gp+0x54>
    1884:	f65ff06f          	j	17e8 <memcpy+0x24>
    1888:	0045a683          	lw	x13,4(x11)
    188c:	0005a283          	lw	x5,0(x11)
    1890:	0085af83          	lw	x31,8(x11)
    1894:	00c5af03          	lw	x30,12(x11)
    1898:	0105ae83          	lw	x29,16(x11)
    189c:	0145ae03          	lw	x28,20(x11)
    18a0:	0185a303          	lw	x6,24(x11)
    18a4:	01c5a803          	lw	x16,28(x11)
    18a8:	00d72223          	sw	x13,4(x14)
    18ac:	0205a683          	lw	x13,32(x11)
    18b0:	00572023          	sw	x5,0(x14)
    18b4:	01f72423          	sw	x31,8(x14)
    18b8:	01e72623          	sw	x30,12(x14)
    18bc:	01d72823          	sw	x29,16(x14)
    18c0:	01c72a23          	sw	x28,20(x14)
    18c4:	00672c23          	sw	x6,24(x14)
    18c8:	01072e23          	sw	x16,28(x14)
    18cc:	02d72023          	sw	x13,32(x14)
    18d0:	02470713          	addi	x14,x14,36
    18d4:	02458593          	addi	x11,x11,36
    18d8:	faf768e3          	bltu	x14,x15,1888 <_gp+0x88>
    18dc:	f19ff06f          	j	17f4 <memcpy+0x30>

000018e0 <main>:
#include "bsg_cuda_lite_runtime.h"


int main()
{
        __wait_until_valid_func();
    18e0:	fffff297          	auipc	x5,0xfffff
    18e4:	7482a283          	lw	x5,1864(x5) # 1028 <cuda_kernel_not_loaded_val>
    18e8:	fffff417          	auipc	x8,0xfffff
    18ec:	75440413          	addi	x8,x8,1876 # 103c <cuda_kernel_ptr>
    18f0:	1004232f          	lr.w	x6,(x8)
    18f4:	00629463          	bne	x5,x6,18fc <__init_param>
    18f8:	140422af          	lr.w.aq	x5,(x8)

000018fc <__init_param>:
    18fc:	fffff297          	auipc	x5,0xfffff
    1900:	74028293          	addi	x5,x5,1856 # 103c <cuda_kernel_ptr>
    1904:	0002a483          	lw	x9,0(x5)
    1908:	fffff297          	auipc	x5,0xfffff
    190c:	73028293          	addi	x5,x5,1840 # 1038 <cuda_argc>
    1910:	0002a903          	lw	x18,0(x5)
    1914:	fffff297          	auipc	x5,0xfffff
    1918:	72028293          	addi	x5,x5,1824 # 1034 <cuda_argv_ptr>
    191c:	0002a983          	lw	x19,0(x5)
    1920:	fffff297          	auipc	x5,0xfffff
    1924:	71028293          	addi	x5,x5,1808 # 1030 <cuda_finish_signal_addr>
    1928:	0002aa03          	lw	x20,0(x5)

0000192c <__load_argument>:
    192c:	0009a503          	lw	x10,0(x19)
    1930:	0049a583          	lw	x11,4(x19)
    1934:	0089a603          	lw	x12,8(x19)
    1938:	00c9a683          	lw	x13,12(x19)
    193c:	0109a703          	lw	x14,16(x19)
    1940:	0149a783          	lw	x15,20(x19)
    1944:	0189a803          	lw	x16,24(x19)
    1948:	01c9a883          	lw	x17,28(x19)
    194c:	00800293          	li	x5,8
    1950:	0322de63          	bge	x5,x18,198c <__invoke_kernel>
    1954:	ff890293          	addi	x5,x18,-8
    1958:	00229293          	slli	x5,x5,0x2
    195c:	40510133          	sub	x2,x2,x5
    1960:	00800293          	li	x5,8
    1964:	02000313          	li	x6,32
    1968:	00000e13          	li	x28,0

0000196c <__load_stack>:
    196c:	013303b3          	add	x7,x6,x19
    1970:	0003ae83          	lw	x29,0(x7)
    1974:	002e0f33          	add	x30,x28,x2
    1978:	01df2023          	sw	x29,0(x30)
    197c:	00128293          	addi	x5,x5,1
    1980:	00430313          	addi	x6,x6,4
    1984:	004e0e13          	addi	x28,x28,4
    1988:	ff22c2e3          	blt	x5,x18,196c <__load_stack>

0000198c <__invoke_kernel>:
    198c:	000480e7          	jalr	x9
    1990:	00800293          	li	x5,8
    1994:	0122d863          	bge	x5,x18,19a4 <__kernel_return>
    1998:	ff890293          	addi	x5,x18,-8
    199c:	00229293          	slli	x5,x5,0x2
    19a0:	00510133          	add	x2,x2,x5

000019a4 <__kernel_return>:
    19a4:	fffff297          	auipc	x5,0xfffff
    19a8:	6842a283          	lw	x5,1668(x5) # 1028 <cuda_kernel_not_loaded_val>
    19ac:	00542023          	sw	x5,0(x8)
  if (__bsg_id == 0) 
    19b0:	000017b7          	lui	x15,0x1
    19b4:	01c7a783          	lw	x15,28(x15) # 101c <__bsg_id>
    19b8:	00079c63          	bnez	x15,19d0 <__kernel_return+0x2c>
     *signal_ptr = cuda_finish_signal_val;     
    19bc:	000017b7          	lui	x15,0x1
    19c0:	00001737          	lui	x14,0x1
    19c4:	0307a783          	lw	x15,48(x15) # 1030 <cuda_finish_signal_addr>
    19c8:	02c72703          	lw	x14,44(x14) # 102c <cuda_finish_signal_val>
    19cc:	00e7a023          	sw	x14,0(x15)
    19d0:	f11ff06f          	j	18e0 <main>
}
    19d4:	00000513          	li	x10,0
    19d8:	00008067          	ret

000019dc <_Z50kernel_matrix_multiply_transpose_nomul_unroll_initILj8EiiiEiPT0_PT1_PT2_mmm>:
 * kernel and all multiplies used to index the A, B and C arrays are
 * transformed into additions (nomul). The row-column dot product is
 * unrolled by a factor of F (a template parameter)
 */
template <unsigned int F, typename TA, typename TB, typename TC>
int __attribute__ ((noinline)) kernel_matrix_multiply_transpose_nomul_unroll_init (
    19dc:	f9010113          	addi	x2,x2,-112
    19e0:	00070813          	mv	x16,x14
    19e4:	00e12823          	sw	x14,16(x2)
                      TA *A, TB *BT, TC *C,
                      uint32_t A_HEIGHT, uint32_t A_WIDTH,
                      uint32_t B_WIDTH) {
        register TC init = static_cast<TC>(0);
        uint32_t incr = A_WIDTH * (F-1);
    19e8:	00371713          	slli	x14,x14,0x3
int __attribute__ ((noinline)) kernel_matrix_multiply_transpose_nomul_unroll_init (
    19ec:	00b12e23          	sw	x11,28(x2)
        uint32_t incr = A_WIDTH * (F-1);
    19f0:	410705b3          	sub	x11,x14,x16
int __attribute__ ((noinline)) kernel_matrix_multiply_transpose_nomul_unroll_init (
    19f4:	06812623          	sw	x8,108(x2)
    19f8:	06912423          	sw	x9,104(x2)
    19fc:	07212223          	sw	x18,100(x2)
    1a00:	07312023          	sw	x19,96(x2)
    1a04:	05412e23          	sw	x20,92(x2)
    1a08:	05512c23          	sw	x21,88(x2)
    1a0c:	05612a23          	sw	x22,84(x2)
    1a10:	05712823          	sw	x23,80(x2)
    1a14:	05812623          	sw	x24,76(x2)
    1a18:	05912423          	sw	x25,72(x2)
    1a1c:	05a12223          	sw	x26,68(x2)
    1a20:	05b12023          	sw	x27,64(x2)
    1a24:	02d12823          	sw	x13,48(x2)
    1a28:	02c12623          	sw	x12,44(x2)
    1a2c:	02f12a23          	sw	x15,52(x2)
        uint32_t incr = A_WIDTH * (F-1);
    1a30:	00b12a23          	sw	x11,20(x2)
        for (uint32_t y = 0, ayoff = 0, boff = 0, coff = 0; y < A_HEIGHT; y ++, ayoff += A_WIDTH) {
    1a34:	1e068463          	beqz	x13,1c1c <_Z50kernel_matrix_multiply_transpose_nomul_unroll_initILj8EiiiEiPT0_PT1_PT2_mmm+0x240>
    1a38:	fff78793          	addi	x15,x15,-1
    1a3c:	ff87f713          	andi	x14,x15,-8
    1a40:	02060793          	addi	x15,x12,32
    1a44:	00281c13          	slli	x24,x16,0x2
    1a48:	02f12c23          	sw	x15,56(x2)
    1a4c:	00870793          	addi	x15,x14,8
    1a50:	00a12623          	sw	x10,12(x2)
    1a54:	01850cb3          	add	x25,x10,x24
    1a58:	02e12423          	sw	x14,40(x2)
    1a5c:	00481f13          	slli	x30,x16,0x4
    1a60:	00259d13          	slli	x26,x11,0x2
    1a64:	00012223          	sw	x0,4(x2)
    1a68:	02012023          	sw	x0,32(x2)
    1a6c:	00012423          	sw	x0,8(x2)
    1a70:	02012223          	sw	x0,36(x2)
    1a74:	02f12e23          	sw	x15,60(x2)
                boff = 0;
                for (uint32_t x = 0; x < B_WIDTH; x += F) {
    1a78:	00812783          	lw	x15,8(x2)
    1a7c:	01012703          	lw	x14,16(x2)
    1a80:	00e787b3          	add	x15,x15,x14
    1a84:	00f12423          	sw	x15,8(x2)
    1a88:	03412783          	lw	x15,52(x2)
    1a8c:	14078e63          	beqz	x15,1be8 <_Z50kernel_matrix_multiply_transpose_nomul_unroll_initILj8EiiiEiPT0_PT1_PT2_mmm+0x20c>
    1a90:	02012703          	lw	x14,32(x2)
    1a94:	02812783          	lw	x15,40(x2)
    1a98:	00271b93          	slli	x23,x14,0x2
    1a9c:	00f707b3          	add	x15,x14,x15
    1aa0:	02c12703          	lw	x14,44(x2)
    1aa4:	00279793          	slli	x15,x15,0x2
    1aa8:	01770bb3          	add	x23,x14,x23
    1aac:	03812703          	lw	x14,56(x2)
    1ab0:	00e787b3          	add	x15,x15,x14
    1ab4:	00f12c23          	sw	x15,24(x2)
                boff = 0;
    1ab8:	00000793          	li	x15,0
                        uint32_t bofff = 0;
                        TC sum[F] = {{init}};
                        for (uint32_t aoff = ayoff; aoff < ayoff + A_WIDTH; aoff++, ++boff) {
    1abc:	00412703          	lw	x14,4(x2)
    1ac0:	00812683          	lw	x13,8(x2)
    1ac4:	18d77a63          	bgeu	x14,x13,1c58 <_Z50kernel_matrix_multiply_transpose_nomul_unroll_initILj8EiiiEiPT0_PT1_PT2_mmm+0x27c>
    1ac8:	01012703          	lw	x14,16(x2)
    1acc:	01c12583          	lw	x11,28(x2)
                        TC sum[F] = {{init}};
    1ad0:	00000f93          	li	x31,0
    1ad4:	00f70db3          	add	x27,x14,x15
    1ad8:	01b706b3          	add	x13,x14,x27
    1adc:	00279793          	slli	x15,x15,0x2
    1ae0:	002d9613          	slli	x12,x27,0x2
    1ae4:	00269693          	slli	x13,x13,0x2
    1ae8:	00f58733          	add	x14,x11,x15
    1aec:	00c58633          	add	x12,x11,x12
    1af0:	00d586b3          	add	x13,x11,x13
                        for (uint32_t aoff = ayoff; aoff < ayoff + A_WIDTH; aoff++, ++boff) {
    1af4:	00c12583          	lw	x11,12(x2)
                        TC sum[F] = {{init}};
    1af8:	00000293          	li	x5,0
    1afc:	00000393          	li	x7,0
    1b00:	00000413          	li	x8,0
    1b04:	00000493          	li	x9,0
    1b08:	00000913          	li	x18,0
    1b0c:	00000993          	li	x19,0
    1b10:	00000a13          	li	x20,0
                                bofff = boff;
#pragma GCC unroll 8 // Does this unroll correctly when F < 4?
                                for (uint32_t f = 0; f < F; ++f, bofff += A_WIDTH){
                                        sum[f] += A[aoff] * BT[bofff];
    1b14:	01868333          	add	x6,x13,x24
    1b18:	01e708b3          	add	x17,x14,x30
    1b1c:	01e60833          	add	x16,x12,x30
    1b20:	01e68533          	add	x10,x13,x30
    1b24:	01a70ab3          	add	x21,x14,x26
    1b28:	0005a783          	lw	x15,0(x11)
    1b2c:	00072b03          	lw	x22,0(x14)
    1b30:	00062e83          	lw	x29,0(x12)
    1b34:	0006ae03          	lw	x28,0(x13)
    1b38:	00032303          	lw	x6,0(x6)
    1b3c:	0008a883          	lw	x17,0(x17)
    1b40:	00082803          	lw	x16,0(x16) # 20000000 <_bsg_elf_vcache_size+0x1ffe0000>
    1b44:	00052503          	lw	x10,0(x10)
    1b48:	000aaa83          	lw	x21,0(x21)
    1b4c:	03678b33          	mul	x22,x15,x22
    1b50:	00458593          	addi	x11,x11,4
    1b54:	00470713          	addi	x14,x14,4
    1b58:	00460613          	addi	x12,x12,4
    1b5c:	00468693          	addi	x13,x13,4
    1b60:	03d78eb3          	mul	x29,x15,x29
    1b64:	016a0a33          	add	x20,x20,x22
    1b68:	03c78e33          	mul	x28,x15,x28
    1b6c:	01d989b3          	add	x19,x19,x29
    1b70:	02678333          	mul	x6,x15,x6
    1b74:	01c90933          	add	x18,x18,x28
    1b78:	031788b3          	mul	x17,x15,x17
    1b7c:	006484b3          	add	x9,x9,x6
    1b80:	03078833          	mul	x16,x15,x16
    1b84:	01140433          	add	x8,x8,x17
    1b88:	02a78533          	mul	x10,x15,x10
    1b8c:	010383b3          	add	x7,x7,x16
    1b90:	035787b3          	mul	x15,x15,x21
    1b94:	00a282b3          	add	x5,x5,x10
    1b98:	00ff8fb3          	add	x31,x31,x15
                        for (uint32_t aoff = ayoff; aoff < ayoff + A_WIDTH; aoff++, ++boff) {
    1b9c:	f6bc9ce3          	bne	x25,x11,1b14 <_Z50kernel_matrix_multiply_transpose_nomul_unroll_initILj8EiiiEiPT0_PT1_PT2_mmm+0x138>
    1ba0:	000d8793          	mv	x15,x27

#pragma GCC unroll 8
                        for (uint32_t f = 0; f < F; f++){
                                C[coff + f] = sum[f];
                        }
                        boff += incr;
    1ba4:	01412703          	lw	x14,20(x2)
                                C[coff + f] = sum[f];
    1ba8:	014ba023          	sw	x20,0(x23)
    1bac:	013ba223          	sw	x19,4(x23)
                        boff += incr;
    1bb0:	00e787b3          	add	x15,x15,x14
                for (uint32_t x = 0; x < B_WIDTH; x += F) {
    1bb4:	01812703          	lw	x14,24(x2)
                                C[coff + f] = sum[f];
    1bb8:	012ba423          	sw	x18,8(x23)
    1bbc:	009ba623          	sw	x9,12(x23)
    1bc0:	008ba823          	sw	x8,16(x23)
    1bc4:	007baa23          	sw	x7,20(x23)
    1bc8:	005bac23          	sw	x5,24(x23)
    1bcc:	01fbae23          	sw	x31,28(x23)
                for (uint32_t x = 0; x < B_WIDTH; x += F) {
    1bd0:	020b8b93          	addi	x23,x23,32
    1bd4:	ef7714e3          	bne	x14,x23,1abc <_Z50kernel_matrix_multiply_transpose_nomul_unroll_initILj8EiiiEiPT0_PT1_PT2_mmm+0xe0>
    1bd8:	02012783          	lw	x15,32(x2)
    1bdc:	03c12703          	lw	x14,60(x2)
    1be0:	00e787b3          	add	x15,x15,x14
    1be4:	02f12023          	sw	x15,32(x2)
        for (uint32_t y = 0, ayoff = 0, boff = 0, coff = 0; y < A_HEIGHT; y ++, ayoff += A_WIDTH) {
    1be8:	00412703          	lw	x14,4(x2)
    1bec:	01012683          	lw	x13,16(x2)
    1bf0:	02412783          	lw	x15,36(x2)
    1bf4:	018c8cb3          	add	x25,x25,x24
    1bf8:	00d70733          	add	x14,x14,x13
    1bfc:	00e12223          	sw	x14,4(x2)
    1c00:	00c12703          	lw	x14,12(x2)
    1c04:	00178793          	addi	x15,x15,1
    1c08:	02f12223          	sw	x15,36(x2)
    1c0c:	01870733          	add	x14,x14,x24
    1c10:	00e12623          	sw	x14,12(x2)
    1c14:	03012703          	lw	x14,48(x2)
    1c18:	e6f710e3          	bne	x14,x15,1a78 <_Z50kernel_matrix_multiply_transpose_nomul_unroll_initILj8EiiiEiPT0_PT1_PT2_mmm+0x9c>
                        coff += F;
                }
        }
        return 0;
}
    1c1c:	06c12403          	lw	x8,108(x2)
    1c20:	06812483          	lw	x9,104(x2)
    1c24:	06412903          	lw	x18,100(x2)
    1c28:	06012983          	lw	x19,96(x2)
    1c2c:	05c12a03          	lw	x20,92(x2)
    1c30:	05812a83          	lw	x21,88(x2)
    1c34:	05412b03          	lw	x22,84(x2)
    1c38:	05012b83          	lw	x23,80(x2)
    1c3c:	04c12c03          	lw	x24,76(x2)
    1c40:	04812c83          	lw	x25,72(x2)
    1c44:	04412d03          	lw	x26,68(x2)
    1c48:	04012d83          	lw	x27,64(x2)
    1c4c:	00000513          	li	x10,0
    1c50:	07010113          	addi	x2,x2,112
    1c54:	00008067          	ret
                        TC sum[F] = {{init}};
    1c58:	00000f93          	li	x31,0
    1c5c:	00000293          	li	x5,0
    1c60:	00000393          	li	x7,0
    1c64:	00000413          	li	x8,0
    1c68:	00000493          	li	x9,0
    1c6c:	00000913          	li	x18,0
    1c70:	00000993          	li	x19,0
    1c74:	00000a13          	li	x20,0
    1c78:	f2dff06f          	j	1ba4 <_Z50kernel_matrix_multiply_transpose_nomul_unroll_initILj8EiiiEiPT0_PT1_PT2_mmm+0x1c8>

00001c7c <_Z50kernel_matrix_multiply_transpose_nomul_unroll_initILj8EsssEiPT0_PT1_PT2_mmm>:
int __attribute__ ((noinline)) kernel_matrix_multiply_transpose_nomul_unroll_init (
    1c7c:	f9010113          	addi	x2,x2,-112
        uint32_t incr = A_WIDTH * (F-1);
    1c80:	00371f93          	slli	x31,x14,0x3
int __attribute__ ((noinline)) kernel_matrix_multiply_transpose_nomul_unroll_init (
    1c84:	00b12e23          	sw	x11,28(x2)
        uint32_t incr = A_WIDTH * (F-1);
    1c88:	40ef85b3          	sub	x11,x31,x14
int __attribute__ ((noinline)) kernel_matrix_multiply_transpose_nomul_unroll_init (
    1c8c:	06812623          	sw	x8,108(x2)
    1c90:	06912423          	sw	x9,104(x2)
    1c94:	07212223          	sw	x18,100(x2)
    1c98:	07312023          	sw	x19,96(x2)
    1c9c:	05412e23          	sw	x20,92(x2)
    1ca0:	05512c23          	sw	x21,88(x2)
    1ca4:	05612a23          	sw	x22,84(x2)
    1ca8:	05712823          	sw	x23,80(x2)
    1cac:	05812623          	sw	x24,76(x2)
    1cb0:	05912423          	sw	x25,72(x2)
    1cb4:	05a12223          	sw	x26,68(x2)
    1cb8:	05b12023          	sw	x27,64(x2)
    1cbc:	00e12823          	sw	x14,16(x2)
    1cc0:	02d12823          	sw	x13,48(x2)
    1cc4:	02c12623          	sw	x12,44(x2)
    1cc8:	02f12a23          	sw	x15,52(x2)
        uint32_t incr = A_WIDTH * (F-1);
    1ccc:	00b12a23          	sw	x11,20(x2)
        for (uint32_t y = 0, ayoff = 0, boff = 0, coff = 0; y < A_HEIGHT; y ++, ayoff += A_WIDTH) {
    1cd0:	22068263          	beqz	x13,1ef4 <_Z50kernel_matrix_multiply_transpose_nomul_unroll_initILj8EsssEiPT0_PT1_PT2_mmm+0x278>
    1cd4:	fff78793          	addi	x15,x15,-1
    1cd8:	00171c13          	slli	x24,x14,0x1
    1cdc:	ff87f713          	andi	x14,x15,-8
    1ce0:	01060793          	addi	x15,x12,16
    1ce4:	02f12c23          	sw	x15,56(x2)
    1ce8:	00870793          	addi	x15,x14,8
    1cec:	00a12623          	sw	x10,12(x2)
    1cf0:	01850cb3          	add	x25,x10,x24
    1cf4:	02e12423          	sw	x14,40(x2)
    1cf8:	00159d13          	slli	x26,x11,0x1
    1cfc:	00012423          	sw	x0,8(x2)
    1d00:	02012023          	sw	x0,32(x2)
    1d04:	00012223          	sw	x0,4(x2)
    1d08:	02012223          	sw	x0,36(x2)
    1d0c:	02f12e23          	sw	x15,60(x2)
                for (uint32_t x = 0; x < B_WIDTH; x += F) {
    1d10:	00412783          	lw	x15,4(x2)
    1d14:	01012703          	lw	x14,16(x2)
    1d18:	00e787b3          	add	x15,x15,x14
    1d1c:	00f12223          	sw	x15,4(x2)
    1d20:	03412783          	lw	x15,52(x2)
    1d24:	18078e63          	beqz	x15,1ec0 <_Z50kernel_matrix_multiply_transpose_nomul_unroll_initILj8EsssEiPT0_PT1_PT2_mmm+0x244>
    1d28:	02012703          	lw	x14,32(x2)
    1d2c:	02812783          	lw	x15,40(x2)
    1d30:	00171b93          	slli	x23,x14,0x1
    1d34:	00f707b3          	add	x15,x14,x15
    1d38:	02c12703          	lw	x14,44(x2)
    1d3c:	00179793          	slli	x15,x15,0x1
    1d40:	01770bb3          	add	x23,x14,x23
    1d44:	03812703          	lw	x14,56(x2)
    1d48:	00e787b3          	add	x15,x15,x14
    1d4c:	00f12c23          	sw	x15,24(x2)
                boff = 0;
    1d50:	00000793          	li	x15,0
                        for (uint32_t aoff = ayoff; aoff < ayoff + A_WIDTH; aoff++, ++boff) {
    1d54:	00812703          	lw	x14,8(x2)
    1d58:	00412683          	lw	x13,4(x2)
    1d5c:	1cd77a63          	bgeu	x14,x13,1f30 <_Z50kernel_matrix_multiply_transpose_nomul_unroll_initILj8EsssEiPT0_PT1_PT2_mmm+0x2b4>
    1d60:	01012703          	lw	x14,16(x2)
    1d64:	00c12f03          	lw	x30,12(x2)
                        TC sum[F] = {{init}};
    1d68:	00000293          	li	x5,0
    1d6c:	00f70db3          	add	x27,x14,x15
    1d70:	01b70e33          	add	x28,x14,x27
    1d74:	01c12703          	lw	x14,28(x2)
    1d78:	00179793          	slli	x15,x15,0x1
    1d7c:	001d9e93          	slli	x29,x27,0x1
    1d80:	001e1e13          	slli	x28,x28,0x1
    1d84:	00f70333          	add	x6,x14,x15
    1d88:	01d70eb3          	add	x29,x14,x29
    1d8c:	01c70e33          	add	x28,x14,x28
    1d90:	00000393          	li	x7,0
    1d94:	00000413          	li	x8,0
    1d98:	00000493          	li	x9,0
    1d9c:	00000913          	li	x18,0
    1da0:	00000993          	li	x19,0
    1da4:	00000a13          	li	x20,0
    1da8:	00000a93          	li	x21,0
                                        sum[f] += A[aoff] * BT[bofff];
    1dac:	018e05b3          	add	x11,x28,x24
    1db0:	01f30633          	add	x12,x6,x31
    1db4:	01fe86b3          	add	x13,x29,x31
    1db8:	01fe0733          	add	x14,x28,x31
    1dbc:	01a30b33          	add	x22,x6,x26
    1dc0:	000f5783          	lhu	x15,0(x30)
    1dc4:	00035883          	lhu	x17,0(x6)
    1dc8:	000ed803          	lhu	x16,0(x29)
    1dcc:	000e5503          	lhu	x10,0(x28)
    1dd0:	0005d583          	lhu	x11,0(x11)
    1dd4:	00065603          	lhu	x12,0(x12)
    1dd8:	0006d683          	lhu	x13,0(x13)
    1ddc:	00075703          	lhu	x14,0(x14)
    1de0:	000b5b03          	lhu	x22,0(x22)
    1de4:	031788b3          	mul	x17,x15,x17
    1de8:	002f0f13          	addi	x30,x30,2
    1dec:	00230313          	addi	x6,x6,2
    1df0:	002e8e93          	addi	x29,x29,2
    1df4:	002e0e13          	addi	x28,x28,2
    1df8:	03078833          	mul	x16,x15,x16
    1dfc:	01588ab3          	add	x21,x17,x21
    1e00:	010a9a93          	slli	x21,x21,0x10
    1e04:	410ada93          	srai	x21,x21,0x10
    1e08:	02a78533          	mul	x10,x15,x10
    1e0c:	01480a33          	add	x20,x16,x20
    1e10:	010a1a13          	slli	x20,x20,0x10
    1e14:	410a5a13          	srai	x20,x20,0x10
    1e18:	02b785b3          	mul	x11,x15,x11
    1e1c:	01350533          	add	x10,x10,x19
    1e20:	01051993          	slli	x19,x10,0x10
    1e24:	4109d993          	srai	x19,x19,0x10
    1e28:	02c78633          	mul	x12,x15,x12
    1e2c:	012585b3          	add	x11,x11,x18
    1e30:	01059913          	slli	x18,x11,0x10
    1e34:	41095913          	srai	x18,x18,0x10
    1e38:	02d786b3          	mul	x13,x15,x13
    1e3c:	00960633          	add	x12,x12,x9
    1e40:	01061493          	slli	x9,x12,0x10
    1e44:	4104d493          	srai	x9,x9,0x10
    1e48:	02e78733          	mul	x14,x15,x14
    1e4c:	008686b3          	add	x13,x13,x8
    1e50:	01069413          	slli	x8,x13,0x10
    1e54:	41045413          	srai	x8,x8,0x10
    1e58:	036787b3          	mul	x15,x15,x22
    1e5c:	00770733          	add	x14,x14,x7
    1e60:	01071393          	slli	x7,x14,0x10
    1e64:	4103d393          	srai	x7,x7,0x10
    1e68:	005787b3          	add	x15,x15,x5
    1e6c:	01079293          	slli	x5,x15,0x10
    1e70:	4102d293          	srai	x5,x5,0x10
                        for (uint32_t aoff = ayoff; aoff < ayoff + A_WIDTH; aoff++, ++boff) {
    1e74:	f3ec9ce3          	bne	x25,x30,1dac <_Z50kernel_matrix_multiply_transpose_nomul_unroll_initILj8EsssEiPT0_PT1_PT2_mmm+0x130>
    1e78:	000d8793          	mv	x15,x27
                        boff += incr;
    1e7c:	01412703          	lw	x14,20(x2)
                                C[coff + f] = sum[f];
    1e80:	015b9023          	sh	x21,0(x23)
    1e84:	014b9123          	sh	x20,2(x23)
                        boff += incr;
    1e88:	00e787b3          	add	x15,x15,x14
                for (uint32_t x = 0; x < B_WIDTH; x += F) {
    1e8c:	01812703          	lw	x14,24(x2)
                                C[coff + f] = sum[f];
    1e90:	013b9223          	sh	x19,4(x23)
    1e94:	012b9323          	sh	x18,6(x23)
    1e98:	009b9423          	sh	x9,8(x23)
    1e9c:	008b9523          	sh	x8,10(x23)
    1ea0:	007b9623          	sh	x7,12(x23)
    1ea4:	005b9723          	sh	x5,14(x23)
                for (uint32_t x = 0; x < B_WIDTH; x += F) {
    1ea8:	010b8b93          	addi	x23,x23,16
    1eac:	eb7714e3          	bne	x14,x23,1d54 <_Z50kernel_matrix_multiply_transpose_nomul_unroll_initILj8EsssEiPT0_PT1_PT2_mmm+0xd8>
    1eb0:	02012783          	lw	x15,32(x2)
    1eb4:	03c12703          	lw	x14,60(x2)
    1eb8:	00e787b3          	add	x15,x15,x14
    1ebc:	02f12023          	sw	x15,32(x2)
        for (uint32_t y = 0, ayoff = 0, boff = 0, coff = 0; y < A_HEIGHT; y ++, ayoff += A_WIDTH) {
    1ec0:	00812703          	lw	x14,8(x2)
    1ec4:	01012683          	lw	x13,16(x2)
    1ec8:	02412783          	lw	x15,36(x2)
    1ecc:	018c8cb3          	add	x25,x25,x24
    1ed0:	00d70733          	add	x14,x14,x13
    1ed4:	00e12423          	sw	x14,8(x2)
    1ed8:	00c12703          	lw	x14,12(x2)
    1edc:	00178793          	addi	x15,x15,1
    1ee0:	02f12223          	sw	x15,36(x2)
    1ee4:	01870733          	add	x14,x14,x24
    1ee8:	00e12623          	sw	x14,12(x2)
    1eec:	03012703          	lw	x14,48(x2)
    1ef0:	e2f710e3          	bne	x14,x15,1d10 <_Z50kernel_matrix_multiply_transpose_nomul_unroll_initILj8EsssEiPT0_PT1_PT2_mmm+0x94>
}
    1ef4:	06c12403          	lw	x8,108(x2)
    1ef8:	06812483          	lw	x9,104(x2)
    1efc:	06412903          	lw	x18,100(x2)
    1f00:	06012983          	lw	x19,96(x2)
    1f04:	05c12a03          	lw	x20,92(x2)
    1f08:	05812a83          	lw	x21,88(x2)
    1f0c:	05412b03          	lw	x22,84(x2)
    1f10:	05012b83          	lw	x23,80(x2)
    1f14:	04c12c03          	lw	x24,76(x2)
    1f18:	04812c83          	lw	x25,72(x2)
    1f1c:	04412d03          	lw	x26,68(x2)
    1f20:	04012d83          	lw	x27,64(x2)
    1f24:	00000513          	li	x10,0
    1f28:	07010113          	addi	x2,x2,112
    1f2c:	00008067          	ret
                        TC sum[F] = {{init}};
    1f30:	00000293          	li	x5,0
    1f34:	00000393          	li	x7,0
    1f38:	00000413          	li	x8,0
    1f3c:	00000493          	li	x9,0
    1f40:	00000913          	li	x18,0
    1f44:	00000993          	li	x19,0
    1f48:	00000a13          	li	x20,0
    1f4c:	00000a93          	li	x21,0
    1f50:	f2dff06f          	j	1e7c <_Z50kernel_matrix_multiply_transpose_nomul_unroll_initILj8EsssEiPT0_PT1_PT2_mmm+0x200>

00001f54 <_Z50kernel_matrix_multiply_transpose_nomul_unroll_initILj8EaaaEiPT0_PT1_PT2_mmm>:
int __attribute__ ((noinline)) kernel_matrix_multiply_transpose_nomul_unroll_init (
    1f54:	fa010113          	addi	x2,x2,-96
    1f58:	00070f13          	mv	x30,x14
        uint32_t incr = A_WIDTH * (F-1);
    1f5c:	00371713          	slli	x14,x14,0x3
int __attribute__ ((noinline)) kernel_matrix_multiply_transpose_nomul_unroll_init (
    1f60:	00f12623          	sw	x15,12(x2)
        uint32_t incr = A_WIDTH * (F-1);
    1f64:	41e707b3          	sub	x15,x14,x30
int __attribute__ ((noinline)) kernel_matrix_multiply_transpose_nomul_unroll_init (
    1f68:	04812e23          	sw	x8,92(x2)
    1f6c:	04912c23          	sw	x9,88(x2)
    1f70:	05212a23          	sw	x18,84(x2)
    1f74:	05312823          	sw	x19,80(x2)
    1f78:	05412623          	sw	x20,76(x2)
    1f7c:	05512423          	sw	x21,72(x2)
    1f80:	05612223          	sw	x22,68(x2)
    1f84:	05712023          	sw	x23,64(x2)
    1f88:	03812e23          	sw	x24,60(x2)
    1f8c:	03912c23          	sw	x25,56(x2)
    1f90:	03a12a23          	sw	x26,52(x2)
    1f94:	03b12823          	sw	x27,48(x2)
    1f98:	02d12623          	sw	x13,44(x2)
    1f9c:	00b12e23          	sw	x11,28(x2)
    1fa0:	02c12423          	sw	x12,40(x2)
        uint32_t incr = A_WIDTH * (F-1);
    1fa4:	00f12823          	sw	x15,16(x2)
        for (uint32_t y = 0, ayoff = 0, boff = 0, coff = 0; y < A_HEIGHT; y ++, ayoff += A_WIDTH) {
    1fa8:	1e068663          	beqz	x13,2194 <_bsg_elf_stack_ptr+0x198>
    1fac:	001f1793          	slli	x15,x30,0x1
    1fb0:	02f12023          	sw	x15,32(x2)
    1fb4:	00800793          	li	x15,8
    1fb8:	002f1a93          	slli	x21,x30,0x2
    1fbc:	40c787b3          	sub	x15,x15,x12
    1fc0:	00a12423          	sw	x10,8(x2)
    1fc4:	01e50c33          	add	x24,x10,x30
    1fc8:	415f0d33          	sub	x26,x30,x21
    1fcc:	01ea8cb3          	add	x25,x21,x30
    1fd0:	00012023          	sw	x0,0(x2)
    1fd4:	00000713          	li	x14,0
    1fd8:	00012223          	sw	x0,4(x2)
    1fdc:	02012223          	sw	x0,36(x2)
    1fe0:	00f12c23          	sw	x15,24(x2)
                for (uint32_t x = 0; x < B_WIDTH; x += F) {
    1fe4:	00412783          	lw	x15,4(x2)
    1fe8:	01e787b3          	add	x15,x15,x30
    1fec:	00f12223          	sw	x15,4(x2)
    1ff0:	00c12783          	lw	x15,12(x2)
    1ff4:	16078863          	beqz	x15,2164 <_bsg_elf_stack_ptr+0x168>
    1ff8:	02812783          	lw	x15,40(x2)
                boff = 0;
    1ffc:	00000d93          	li	x27,0
    2000:	00e787b3          	add	x15,x15,x14
    2004:	00f12a23          	sw	x15,20(x2)
                for (uint32_t x = 0; x < B_WIDTH; x += F) {
    2008:	00078b93          	mv	x23,x15
                        for (uint32_t aoff = ayoff; aoff < ayoff + A_WIDTH; aoff++, ++boff) {
    200c:	00012783          	lw	x15,0(x2)
    2010:	00412703          	lw	x14,4(x2)
    2014:	1ae7fe63          	bgeu	x15,x14,21d0 <_bsg_elf_stack_ptr+0x1d4>
    2018:	02012783          	lw	x15,32(x2)
    201c:	01bf0db3          	add	x27,x30,x27
    2020:	00812e83          	lw	x29,8(x2)
    2024:	01b78733          	add	x14,x15,x27
    2028:	01c12783          	lw	x15,28(x2)
                        TC sum[F] = {{init}};
    202c:	00000f93          	li	x31,0
    2030:	00000293          	li	x5,0
    2034:	01b786b3          	add	x13,x15,x27
    2038:	00e78733          	add	x14,x15,x14
    203c:	00000393          	li	x7,0
    2040:	00000413          	li	x8,0
    2044:	00000493          	li	x9,0
    2048:	00000913          	li	x18,0
    204c:	00000993          	li	x19,0
    2050:	00000a13          	li	x20,0
                                        sum[f] += A[aoff] * BT[bofff];
    2054:	01a70e33          	add	x28,x14,x26
    2058:	01e688b3          	add	x17,x13,x30
    205c:	01e70533          	add	x10,x14,x30
    2060:	015685b3          	add	x11,x13,x21
    2064:	01968633          	add	x12,x13,x25
    2068:	01570b33          	add	x22,x14,x21
    206c:	000ec783          	lbu	x15,0(x29)
    2070:	0006c303          	lbu	x6,0(x13)
    2074:	00074803          	lbu	x16,0(x14)
    2078:	000e4e03          	lbu	x28,0(x28)
    207c:	0008c883          	lbu	x17,0(x17)
    2080:	00054503          	lbu	x10,0(x10)
    2084:	0005c583          	lbu	x11,0(x11)
    2088:	00064603          	lbu	x12,0(x12)
    208c:	000b4b03          	lbu	x22,0(x22)
    2090:	03c78e33          	mul	x28,x15,x28
    2094:	001e8e93          	addi	x29,x29,1
    2098:	00168693          	addi	x13,x13,1
    209c:	00170713          	addi	x14,x14,1
    20a0:	02678333          	mul	x6,x15,x6
    20a4:	014e0a33          	add	x20,x28,x20
    20a8:	018a1a13          	slli	x20,x20,0x18
    20ac:	418a5a13          	srai	x20,x20,0x18
    20b0:	031788b3          	mul	x17,x15,x17
    20b4:	013309b3          	add	x19,x6,x19
    20b8:	01899993          	slli	x19,x19,0x18
    20bc:	4189d993          	srai	x19,x19,0x18
    20c0:	03078833          	mul	x16,x15,x16
    20c4:	012888b3          	add	x17,x17,x18
    20c8:	01889913          	slli	x18,x17,0x18
    20cc:	41895913          	srai	x18,x18,0x18
    20d0:	02a78533          	mul	x10,x15,x10
    20d4:	00980833          	add	x16,x16,x9
    20d8:	01881493          	slli	x9,x16,0x18
    20dc:	4184d493          	srai	x9,x9,0x18
    20e0:	02b785b3          	mul	x11,x15,x11
    20e4:	00850533          	add	x10,x10,x8
    20e8:	01851413          	slli	x8,x10,0x18
    20ec:	41845413          	srai	x8,x8,0x18
    20f0:	02c78633          	mul	x12,x15,x12
    20f4:	007585b3          	add	x11,x11,x7
    20f8:	01859393          	slli	x7,x11,0x18
    20fc:	4183d393          	srai	x7,x7,0x18
    2100:	036787b3          	mul	x15,x15,x22
    2104:	00560633          	add	x12,x12,x5
    2108:	01861293          	slli	x5,x12,0x18
    210c:	4182d293          	srai	x5,x5,0x18
    2110:	01f787b3          	add	x15,x15,x31
    2114:	01879f93          	slli	x31,x15,0x18
    2118:	418fdf93          	srai	x31,x31,0x18
                        for (uint32_t aoff = ayoff; aoff < ayoff + A_WIDTH; aoff++, ++boff) {
    211c:	f3dc1ce3          	bne	x24,x29,2054 <_bsg_elf_stack_ptr+0x58>
                        for (uint32_t f = 0; f < F; f++){
    2120:	01812783          	lw	x15,24(x2)
                        boff += incr;
    2124:	01012683          	lw	x13,16(x2)
                                C[coff + f] = sum[f];
    2128:	014b8023          	sb	x20,0(x23)
                        for (uint32_t f = 0; f < F; f++){
    212c:	01778733          	add	x14,x15,x23
                for (uint32_t x = 0; x < B_WIDTH; x += F) {
    2130:	01412783          	lw	x15,20(x2)
                        boff += incr;
    2134:	00dd8db3          	add	x27,x27,x13
                for (uint32_t x = 0; x < B_WIDTH; x += F) {
    2138:	00c12683          	lw	x13,12(x2)
                                C[coff + f] = sum[f];
    213c:	013b80a3          	sb	x19,1(x23)
    2140:	012b8123          	sb	x18,2(x23)
    2144:	009b81a3          	sb	x9,3(x23)
    2148:	008b8223          	sb	x8,4(x23)
    214c:	007b82a3          	sb	x7,5(x23)
    2150:	005b8323          	sb	x5,6(x23)
    2154:	01fb83a3          	sb	x31,7(x23)
                for (uint32_t x = 0; x < B_WIDTH; x += F) {
    2158:	008b8b93          	addi	x23,x23,8
    215c:	40fb87b3          	sub	x15,x23,x15
    2160:	ead7e6e3          	bltu	x15,x13,200c <_bsg_elf_stack_ptr+0x10>
        for (uint32_t y = 0, ayoff = 0, boff = 0, coff = 0; y < A_HEIGHT; y ++, ayoff += A_WIDTH) {
    2164:	00012683          	lw	x13,0(x2)
    2168:	02412783          	lw	x15,36(x2)
    216c:	01ec0c33          	add	x24,x24,x30
    2170:	01e686b3          	add	x13,x13,x30
    2174:	00d12023          	sw	x13,0(x2)
    2178:	00812683          	lw	x13,8(x2)
    217c:	00178793          	addi	x15,x15,1
    2180:	02f12223          	sw	x15,36(x2)
    2184:	01e686b3          	add	x13,x13,x30
    2188:	00d12423          	sw	x13,8(x2)
    218c:	02c12683          	lw	x13,44(x2)
    2190:	e4f69ae3          	bne	x13,x15,1fe4 <_Z50kernel_matrix_multiply_transpose_nomul_unroll_initILj8EaaaEiPT0_PT1_PT2_mmm+0x90>
}
    2194:	05c12403          	lw	x8,92(x2)
    2198:	05812483          	lw	x9,88(x2)
    219c:	05412903          	lw	x18,84(x2)
    21a0:	05012983          	lw	x19,80(x2)
    21a4:	04c12a03          	lw	x20,76(x2)
    21a8:	04812a83          	lw	x21,72(x2)
    21ac:	04412b03          	lw	x22,68(x2)
    21b0:	04012b83          	lw	x23,64(x2)
    21b4:	03c12c03          	lw	x24,60(x2)
    21b8:	03812c83          	lw	x25,56(x2)
    21bc:	03412d03          	lw	x26,52(x2)
    21c0:	03012d83          	lw	x27,48(x2)
    21c4:	00000513          	li	x10,0
    21c8:	06010113          	addi	x2,x2,96
    21cc:	00008067          	ret
                        TC sum[F] = {{init}};
    21d0:	00000f93          	li	x31,0
    21d4:	00000293          	li	x5,0
    21d8:	00000393          	li	x7,0
    21dc:	00000413          	li	x8,0
    21e0:	00000493          	li	x9,0
    21e4:	00000913          	li	x18,0
    21e8:	00000993          	li	x19,0
    21ec:	00000a13          	li	x20,0
    21f0:	f31ff06f          	j	2120 <_bsg_elf_stack_ptr+0x124>

000021f4 <_Z50kernel_matrix_multiply_transpose_nomul_unroll_initILj8EfffEiPT0_PT1_PT2_mmm>:
int __attribute__ ((noinline)) kernel_matrix_multiply_transpose_nomul_unroll_init (
    21f4:	fc010113          	addi	x2,x2,-64
    21f8:	03412623          	sw	x20,44(x2)
    21fc:	02812e23          	sw	x8,60(x2)
        uint32_t incr = A_WIDTH * (F-1);
    2200:	00371a13          	slli	x20,x14,0x3
int __attribute__ ((noinline)) kernel_matrix_multiply_transpose_nomul_unroll_init (
    2204:	02912c23          	sw	x9,56(x2)
    2208:	03212a23          	sw	x18,52(x2)
    220c:	03312823          	sw	x19,48(x2)
    2210:	03512423          	sw	x21,40(x2)
    2214:	03612223          	sw	x22,36(x2)
    2218:	03712023          	sw	x23,32(x2)
    221c:	01812e23          	sw	x24,28(x2)
    2220:	01912c23          	sw	x25,24(x2)
    2224:	01a12a23          	sw	x26,20(x2)
    2228:	01b12823          	sw	x27,16(x2)
        uint32_t incr = A_WIDTH * (F-1);
    222c:	40ea0a33          	sub	x20,x20,x14
        for (uint32_t y = 0, ayoff = 0, boff = 0, coff = 0; y < A_HEIGHT; y ++, ayoff += A_WIDTH) {
    2230:	1a068063          	beqz	x13,23d0 <_Z50kernel_matrix_multiply_transpose_nomul_unroll_initILj8EfffEiPT0_PT1_PT2_mmm+0x1dc>
    2234:	00078c93          	mv	x25,x15
    2238:	fff78793          	addi	x15,x15,-1
    223c:	00070493          	mv	x9,x14
    2240:	00271f13          	slli	x30,x14,0x2
    2244:	ff87f713          	andi	x14,x15,-8
    2248:	02060793          	addi	x15,x12,32
    224c:	00f12423          	sw	x15,8(x2)
    2250:	00870793          	addi	x15,x14,8
    2254:	00058413          	mv	x8,x11
    2258:	00068d13          	mv	x26,x13
    225c:	00060b93          	mv	x23,x12
    2260:	00050913          	mv	x18,x10
    2264:	01e50fb3          	add	x31,x10,x30
    2268:	00e12223          	sw	x14,4(x2)
    226c:	00449593          	slli	x11,x9,0x4
    2270:	002a1293          	slli	x5,x20,0x2
    2274:	00000b13          	li	x22,0
    2278:	00000c13          	li	x24,0
    227c:	00000a93          	li	x21,0
    2280:	00000d93          	li	x27,0
    2284:	00f12623          	sw	x15,12(x2)
                for (uint32_t x = 0; x < B_WIDTH; x += F) {
    2288:	009a8ab3          	add	x21,x21,x9
    228c:	120c8863          	beqz	x25,23bc <_Z50kernel_matrix_multiply_transpose_nomul_unroll_initILj8EfffEiPT0_PT1_PT2_mmm+0x1c8>
    2290:	00412783          	lw	x15,4(x2)
    2294:	002c1e93          	slli	x29,x24,0x2
    2298:	01db8eb3          	add	x29,x23,x29
    229c:	00fc09b3          	add	x19,x24,x15
    22a0:	00812783          	lw	x15,8(x2)
    22a4:	00299993          	slli	x19,x19,0x2
    22a8:	00f989b3          	add	x19,x19,x15
                boff = 0;
    22ac:	00000793          	li	x15,0
                        for (uint32_t aoff = ayoff; aoff < ayoff + A_WIDTH; aoff++, ++boff) {
    22b0:	155b7e63          	bgeu	x22,x21,240c <_Z50kernel_matrix_multiply_transpose_nomul_unroll_initILj8EfffEiPT0_PT1_PT2_mmm+0x218>
                        TC sum[F] = {{init}};
    22b4:	f0000153          	fmv.w.x	f2,x0
    22b8:	00f483b3          	add	x7,x9,x15
    22bc:	00748733          	add	x14,x9,x7
    22c0:	202101d3          	fmv.s	f3,f2
    22c4:	20210253          	fmv.s	f4,f2
    22c8:	202102d3          	fmv.s	f5,f2
    22cc:	20210353          	fmv.s	f6,f2
    22d0:	202103d3          	fmv.s	f7,f2
    22d4:	20210853          	fmv.s	f16,f2
    22d8:	202108d3          	fmv.s	f17,f2
    22dc:	00279793          	slli	x15,x15,0x2
    22e0:	00239693          	slli	x13,x7,0x2
    22e4:	00271713          	slli	x14,x14,0x2
    22e8:	00f407b3          	add	x15,x8,x15
    22ec:	00d406b3          	add	x13,x8,x13
    22f0:	00e40733          	add	x14,x8,x14
                        for (uint32_t aoff = ayoff; aoff < ayoff + A_WIDTH; aoff++, ++boff) {
    22f4:	00090613          	mv	x12,x18
                                        sum[f] += A[aoff] * BT[bofff];
    22f8:	01e70e33          	add	x28,x14,x30
    22fc:	00b78333          	add	x6,x15,x11
    2300:	00b688b3          	add	x17,x13,x11
    2304:	00b70833          	add	x16,x14,x11
    2308:	00578533          	add	x10,x15,x5
    230c:	00062787          	flw	f15,0(x12)
    2310:	0007a087          	flw	f1,0(x15)
    2314:	0006a007          	flw	f0,0(x13)
    2318:	00072507          	flw	f10,0(x14)
    231c:	000e2587          	flw	f11,0(x28)
    2320:	00032607          	flw	f12,0(x6)
    2324:	0008a687          	flw	f13,0(x17)
    2328:	00082707          	flw	f14,0(x16)
    232c:	00052e07          	flw	f28,0(x10)
    2330:	1017f0d3          	fmul.s	f1,f15,f1
    2334:	1007f053          	fmul.s	f0,f15,f0
    2338:	10a7f553          	fmul.s	f10,f15,f10
    233c:	10b7f5d3          	fmul.s	f11,f15,f11
    2340:	10c7f653          	fmul.s	f12,f15,f12
    2344:	10d7f6d3          	fmul.s	f13,f15,f13
    2348:	10e7f753          	fmul.s	f14,f15,f14
    234c:	11c7f7d3          	fmul.s	f15,f15,f28
    2350:	00460613          	addi	x12,x12,4
    2354:	0018f8d3          	fadd.s	f17,f17,f1
    2358:	00087853          	fadd.s	f16,f16,f0
    235c:	00a3f3d3          	fadd.s	f7,f7,f10
    2360:	00b37353          	fadd.s	f6,f6,f11
    2364:	00c2f2d3          	fadd.s	f5,f5,f12
    2368:	00d27253          	fadd.s	f4,f4,f13
    236c:	00e1f1d3          	fadd.s	f3,f3,f14
    2370:	00f17153          	fadd.s	f2,f2,f15
                        for (uint32_t aoff = ayoff; aoff < ayoff + A_WIDTH; aoff++, ++boff) {
    2374:	00478793          	addi	x15,x15,4
    2378:	00468693          	addi	x13,x13,4
    237c:	00470713          	addi	x14,x14,4
    2380:	f6cf9ce3          	bne	x31,x12,22f8 <_Z50kernel_matrix_multiply_transpose_nomul_unroll_initILj8EfffEiPT0_PT1_PT2_mmm+0x104>
    2384:	00038793          	mv	x15,x7
                                C[coff + f] = sum[f];
    2388:	011ea027          	fsw	f17,0(x29)
    238c:	010ea227          	fsw	f16,4(x29)
    2390:	007ea427          	fsw	f7,8(x29)
    2394:	006ea627          	fsw	f6,12(x29)
    2398:	005ea827          	fsw	f5,16(x29)
    239c:	004eaa27          	fsw	f4,20(x29)
    23a0:	003eac27          	fsw	f3,24(x29)
    23a4:	002eae27          	fsw	f2,28(x29)
                        for (uint32_t f = 0; f < F; f++){
    23a8:	020e8e93          	addi	x29,x29,32
                        boff += incr;
    23ac:	014787b3          	add	x15,x15,x20
                for (uint32_t x = 0; x < B_WIDTH; x += F) {
    23b0:	f1d990e3          	bne	x19,x29,22b0 <_Z50kernel_matrix_multiply_transpose_nomul_unroll_initILj8EfffEiPT0_PT1_PT2_mmm+0xbc>
    23b4:	00c12783          	lw	x15,12(x2)
    23b8:	00fc0c33          	add	x24,x24,x15
        for (uint32_t y = 0, ayoff = 0, boff = 0, coff = 0; y < A_HEIGHT; y ++, ayoff += A_WIDTH) {
    23bc:	001d8d93          	addi	x27,x27,1 # 3f000001 <_bsg_elf_vcache_size+0x3efe0001>
    23c0:	009b0b33          	add	x22,x22,x9
    23c4:	01e90933          	add	x18,x18,x30
    23c8:	01ef8fb3          	add	x31,x31,x30
    23cc:	ebbd1ee3          	bne	x26,x27,2288 <_Z50kernel_matrix_multiply_transpose_nomul_unroll_initILj8EfffEiPT0_PT1_PT2_mmm+0x94>
}
    23d0:	03c12403          	lw	x8,60(x2)
    23d4:	03812483          	lw	x9,56(x2)
    23d8:	03412903          	lw	x18,52(x2)
    23dc:	03012983          	lw	x19,48(x2)
    23e0:	02c12a03          	lw	x20,44(x2)
    23e4:	02812a83          	lw	x21,40(x2)
    23e8:	02412b03          	lw	x22,36(x2)
    23ec:	02012b83          	lw	x23,32(x2)
    23f0:	01c12c03          	lw	x24,28(x2)
    23f4:	01812c83          	lw	x25,24(x2)
    23f8:	01412d03          	lw	x26,20(x2)
    23fc:	01012d83          	lw	x27,16(x2)
    2400:	00000513          	li	x10,0
    2404:	04010113          	addi	x2,x2,64
    2408:	00008067          	ret
                        TC sum[F] = {{init}};
    240c:	f0000153          	fmv.w.x	f2,x0
    2410:	202101d3          	fmv.s	f3,f2
    2414:	20210253          	fmv.s	f4,f2
    2418:	202102d3          	fmv.s	f5,f2
    241c:	20210353          	fmv.s	f6,f2
    2420:	202103d3          	fmv.s	f7,f2
    2424:	20210853          	fmv.s	f16,f2
    2428:	202108d3          	fmv.s	f17,f2
    242c:	f5dff06f          	j	2388 <_Z50kernel_matrix_multiply_transpose_nomul_unroll_initILj8EfffEiPT0_PT1_PT2_mmm+0x194>
