	.text
	.file	"kernel.cpp"
	.file	1 "/mnt/users/spin0/no_backup/eafurst/bsg_bladerunner/llvm-baseline/examples/vec_blocking/kernel/include/vector_add.hpp"
	.file	2 "/mnt/users/spin0/no_backup/eafurst/bsg_bladerunner/bsg_manycore/software/bsg_manycore_lib/bsg_tile_group_barrier.h"
	.file	3 "/mnt/users/spin0/no_backup/eafurst/bsg_bladerunner/llvm-baseline/examples/vec_blocking/kernel/v3/kernel.cpp"
	.file	4 "/mnt/users/spin0/no_backup/eafurst/bsg_bladerunner/bsg_manycore/software/bsg_manycore_lib/bsg_manycore.h"
	.globl	_Z22bsg_tile_group_barrierP17_bsg_row_barrier_P17_bsg_col_barrier_ # -- Begin function _Z22bsg_tile_group_barrierP17_bsg_row_barrier_P17_bsg_col_barrier_
	.p2align	2
	.type	_Z22bsg_tile_group_barrierP17_bsg_row_barrier_P17_bsg_col_barrier_,@function
_Z22bsg_tile_group_barrierP17_bsg_row_barrier_P17_bsg_col_barrier_: # @_Z22bsg_tile_group_barrierP17_bsg_row_barrier_P17_bsg_col_barrier_
.Lfunc_begin0:
	.loc	2 172 0                 # bsg_manycore/software/bsg_manycore_lib/bsg_tile_group_barrier.h:172:0
	.cfi_startproc
# %bb.0:                                # %entry
	#DEBUG_VALUE: bsg_tile_group_barrier:p_row_b <- $x10
	#DEBUG_VALUE: bsg_tile_group_barrier:p_col_b <- $x11
	addi	sp, sp, -32
	.cfi_def_cfa_offset 32
	sw	ra, 28(sp)
	sw	s0, 24(sp)
	sw	s1, 20(sp)
	sw	s2, 16(sp)
	sw	s3, 12(sp)
	.cfi_offset ra, -4
	.cfi_offset s0, -8
	.cfi_offset s1, -12
	.cfi_offset s2, -16
	.cfi_offset s3, -20
	mv	s0, a0
.Ltmp0:
	#DEBUG_VALUE: bsg_tile_group_barrier:p_row_b <- $x8
	.loc	2 173 39 prologue_end   # bsg_manycore/software/bsg_manycore_lib/bsg_tile_group_barrier.h:173:39
	lbu	a2, 0(a0)
	.loc	2 173 64 is_stmt 0      # bsg_manycore/software/bsg_manycore_lib/bsg_tile_group_barrier.h:173:64
	lbu	a0, 1(a0)
	mv	s3, a1
.Ltmp1:
	#DEBUG_VALUE: bsg_tile_group_barrier:p_col_b <- $x19
	.loc	2 92 66 is_stmt 1       # bsg_manycore/software/bsg_manycore_lib/bsg_tile_group_barrier.h:92:66
	lui	a6, %hi(__bsg_y)
	lw	a3, %lo(__bsg_y)(a6)
.Ltmp2:
	.loc	2 173 53                # bsg_manycore/software/bsg_manycore_lib/bsg_tile_group_barrier.h:173:53
	add	a0, a0, a2
	.loc	2 173 76 is_stmt 0      # bsg_manycore/software/bsg_manycore_lib/bsg_tile_group_barrier.h:173:76
	srli	s2, a0, 1
.Ltmp3:
	#DEBUG_VALUE: bsg_tile_group_barrier:center_x_cord <- $x18
	.loc	2 175 39 is_stmt 1      # bsg_manycore/software/bsg_manycore_lib/bsg_tile_group_barrier.h:175:39
	lbu	a4, 0(a1)
.Ltmp4:
	.loc	2 92 66                 # bsg_manycore/software/bsg_manycore_lib/bsg_tile_group_barrier.h:92:66
	slli	a3, a3, 24
	slli	a7, s2, 18
	.loc	2 96 39                 # bsg_manycore/software/bsg_manycore_lib/bsg_tile_group_barrier.h:96:39
	lui	s1, %hi(__bsg_x)
	lw	a5, %lo(__bsg_x)(s1)
	.loc	2 92 66                 # bsg_manycore/software/bsg_manycore_lib/bsg_tile_group_barrier.h:92:66
	or	a1, a7, s0
	or	a1, a1, a3
.Ltmp5:
	.loc	2 175 64                # bsg_manycore/software/bsg_manycore_lib/bsg_tile_group_barrier.h:175:64
	lbu	a0, 1(s3)
.Ltmp6:
	.loc	2 96 45                 # bsg_manycore/software/bsg_manycore_lib/bsg_tile_group_barrier.h:96:45
	sub	a2, a5, a2
	lui	a5, 131072
	.loc	2 92 66                 # bsg_manycore/software/bsg_manycore_lib/bsg_tile_group_barrier.h:92:66
	or	a1, a1, a5
.Ltmp7:
	#DEBUG_VALUE: bsg_row_barrier_sync:p_remote_barrier <- $x11
	.loc	2 96 9                  # bsg_manycore/software/bsg_manycore_lib/bsg_tile_group_barrier.h:96:9
	add	a1, a1, a2
.Ltmp8:
	.loc	2 0 9 is_stmt 0         # bsg_manycore/software/bsg_manycore_lib/bsg_tile_group_barrier.h:0:9
	addi	a2, zero, 1
	.loc	2 96 72                 # bsg_manycore/software/bsg_manycore_lib/bsg_tile_group_barrier.h:96:72
	sb	a2, 2(a1)
.Ltmp9:
	.loc	2 186 13 is_stmt 1      # bsg_manycore/software/bsg_manycore_lib/bsg_tile_group_barrier.h:186:13
	lw	a3, %lo(__bsg_x)(s1)
.Ltmp10:
	.loc	2 175 53                # bsg_manycore/software/bsg_manycore_lib/bsg_tile_group_barrier.h:175:53
	add	a0, a0, a4
	.loc	2 175 76 is_stmt 0      # bsg_manycore/software/bsg_manycore_lib/bsg_tile_group_barrier.h:175:76
	srli	a2, a0, 1
.Ltmp11:
	#DEBUG_VALUE: bsg_row_barrier_sync:center_x_cord <- $x18
	#DEBUG_VALUE: bsg_row_barrier_sync:p_row_b <- $x8
	#DEBUG_VALUE: bsg_tile_group_barrier:center_y_cord <- $x12
	.loc	2 186 13 is_stmt 1      # bsg_manycore/software/bsg_manycore_lib/bsg_tile_group_barrier.h:186:13
	bne	a3, s2, .LBB0_6
.Ltmp12:
# %bb.1:                                # %if.then
	#DEBUG_VALUE: bsg_tile_group_barrier:center_y_cord <- $x12
	#DEBUG_VALUE: bsg_tile_group_barrier:center_x_cord <- $x18
	#DEBUG_VALUE: bsg_tile_group_barrier:p_col_b <- $x19
	#DEBUG_VALUE: bsg_tile_group_barrier:p_row_b <- $x8
	#DEBUG_VALUE: bsg_col_barrier_sync:p_row_b <- $x8
	#DEBUG_VALUE: bsg_col_barrier_sync:p_col_b <- $x19
	#DEBUG_VALUE: bsg_col_barrier_sync:center_x_cord <- $x18
	#DEBUG_VALUE: bsg_col_barrier_sync:center_y_cord <- $x12
	.loc	2 106 33                # bsg_manycore/software/bsg_manycore_lib/bsg_tile_group_barrier.h:106:33
	lbu	a0, 1(s0)
	.loc	2 106 56 is_stmt 0      # bsg_manycore/software/bsg_manycore_lib/bsg_tile_group_barrier.h:106:56
	lbu	a1, 0(s0)
	.loc	2 103 66 is_stmt 1      # bsg_manycore/software/bsg_manycore_lib/bsg_tile_group_barrier.h:103:66
	slli	a3, a2, 24
	or	a4, a7, s3
	or	a3, a4, a3
	.loc	2 106 45                # bsg_manycore/software/bsg_manycore_lib/bsg_tile_group_barrier.h:106:45
	sub	a4, a0, a1
.Ltmp13:
	#DEBUG_VALUE: bsg_col_barrier_sync:x_range <- $x14
	.loc	2 103 66                # bsg_manycore/software/bsg_manycore_lib/bsg_tile_group_barrier.h:103:66
	or	a3, a3, a5
.Ltmp14:
	#DEBUG_VALUE: bsg_col_barrier_sync:p_remote_barrier <- $x13
	#DEBUG_VALUE: poll_range:i <- 0
	#DEBUG_VALUE: poll_range:p <- [DW_OP_plus_uconst 2, DW_OP_stack_value] $x8
	#DEBUG_VALUE: poll_range:range <- $x14
	.loc	2 208 17                # bsg_manycore/software/bsg_manycore_lib/bsg_tile_group_barrier.h:208:17
	bltz	a4, .LBB0_5
.Ltmp15:
# %bb.2:                                # %for.body.i.i.preheader
	#DEBUG_VALUE: poll_range:range <- $x14
	#DEBUG_VALUE: poll_range:p <- [DW_OP_plus_uconst 2, DW_OP_stack_value] $x8
	#DEBUG_VALUE: poll_range:i <- 0
	#DEBUG_VALUE: bsg_col_barrier_sync:p_remote_barrier <- $x13
	#DEBUG_VALUE: bsg_col_barrier_sync:x_range <- $x14
	#DEBUG_VALUE: bsg_col_barrier_sync:center_y_cord <- $x12
	#DEBUG_VALUE: bsg_col_barrier_sync:center_x_cord <- $x18
	#DEBUG_VALUE: bsg_col_barrier_sync:p_col_b <- $x19
	#DEBUG_VALUE: bsg_col_barrier_sync:p_row_b <- $x8
	#DEBUG_VALUE: bsg_tile_group_barrier:center_y_cord <- $x12
	#DEBUG_VALUE: bsg_tile_group_barrier:center_x_cord <- $x18
	#DEBUG_VALUE: bsg_tile_group_barrier:p_col_b <- $x19
	#DEBUG_VALUE: bsg_tile_group_barrier:p_row_b <- $x8
	.loc	2 0 17 is_stmt 0        # bsg_manycore/software/bsg_manycore_lib/bsg_tile_group_barrier.h:0:17
	mv	a5, zero
.Ltmp16:
.LBB0_3:                                # %for.body.i.i
                                        # =>This Inner Loop Header: Depth=1
	#DEBUG_VALUE: poll_range:range <- $x14
	#DEBUG_VALUE: poll_range:p <- [DW_OP_plus_uconst 2, DW_OP_stack_value] $x8
	#DEBUG_VALUE: bsg_col_barrier_sync:p_remote_barrier <- $x13
	#DEBUG_VALUE: bsg_col_barrier_sync:x_range <- $x14
	#DEBUG_VALUE: bsg_col_barrier_sync:center_y_cord <- $x12
	#DEBUG_VALUE: bsg_col_barrier_sync:center_x_cord <- $x18
	#DEBUG_VALUE: bsg_col_barrier_sync:p_col_b <- $x19
	#DEBUG_VALUE: bsg_col_barrier_sync:p_row_b <- $x8
	#DEBUG_VALUE: bsg_tile_group_barrier:center_y_cord <- $x12
	#DEBUG_VALUE: bsg_tile_group_barrier:center_x_cord <- $x18
	#DEBUG_VALUE: bsg_tile_group_barrier:p_col_b <- $x19
	#DEBUG_VALUE: bsg_tile_group_barrier:p_row_b <- $x8
	mv	s1, a5
.Ltmp17:
	#DEBUG_VALUE: poll_range:i <- $x9
	.loc	2 209 30 is_stmt 1      # bsg_manycore/software/bsg_manycore_lib/bsg_tile_group_barrier.h:209:30
	add	a0, s0, a5
	lbu	a0, 2(a0)
.Ltmp18:
	#DEBUG_VALUE: poll_range:i <- [DW_OP_plus_uconst 1, DW_OP_stack_value] $x9
	.loc	2 0 30 is_stmt 0        # bsg_manycore/software/bsg_manycore_lib/bsg_tile_group_barrier.h:0:30
	mv	a5, zero
.Ltmp19:
	.loc	2 209 30                # bsg_manycore/software/bsg_manycore_lib/bsg_tile_group_barrier.h:209:30
	beqz	a0, .LBB0_3
.Ltmp20:
# %bb.4:                                # %for.cond.i.i
                                        #   in Loop: Header=BB0_3 Depth=1
	#DEBUG_VALUE: poll_range:i <- [DW_OP_plus_uconst 1, DW_OP_stack_value] $x9
	#DEBUG_VALUE: poll_range:range <- $x14
	#DEBUG_VALUE: poll_range:p <- [DW_OP_plus_uconst 2, DW_OP_stack_value] $x8
	#DEBUG_VALUE: bsg_col_barrier_sync:p_remote_barrier <- $x13
	#DEBUG_VALUE: bsg_col_barrier_sync:x_range <- $x14
	#DEBUG_VALUE: bsg_col_barrier_sync:center_y_cord <- $x12
	#DEBUG_VALUE: bsg_col_barrier_sync:center_x_cord <- $x18
	#DEBUG_VALUE: bsg_col_barrier_sync:p_col_b <- $x19
	#DEBUG_VALUE: bsg_col_barrier_sync:p_row_b <- $x8
	#DEBUG_VALUE: bsg_tile_group_barrier:center_y_cord <- $x12
	#DEBUG_VALUE: bsg_tile_group_barrier:center_x_cord <- $x18
	#DEBUG_VALUE: bsg_tile_group_barrier:p_col_b <- $x19
	#DEBUG_VALUE: bsg_tile_group_barrier:p_row_b <- $x8
	.loc	2 208 41 is_stmt 1      # bsg_manycore/software/bsg_manycore_lib/bsg_tile_group_barrier.h:208:41
	addi	a5, s1, 1
.Ltmp21:
	#DEBUG_VALUE: poll_range:i <- $x15
	.loc	2 208 17 is_stmt 0      # bsg_manycore/software/bsg_manycore_lib/bsg_tile_group_barrier.h:208:17
	bne	s1, a4, .LBB0_3
.Ltmp22:
.LBB0_5:                                # %_Z20bsg_col_barrier_syncP17_bsg_row_barrier_P17_bsg_col_barrier_ii.exit
	#DEBUG_VALUE: bsg_col_barrier_sync:p_remote_barrier <- $x13
	#DEBUG_VALUE: bsg_col_barrier_sync:x_range <- $x14
	#DEBUG_VALUE: bsg_col_barrier_sync:center_y_cord <- $x12
	#DEBUG_VALUE: bsg_col_barrier_sync:center_x_cord <- $x18
	#DEBUG_VALUE: bsg_col_barrier_sync:p_col_b <- $x19
	#DEBUG_VALUE: bsg_col_barrier_sync:p_row_b <- $x8
	#DEBUG_VALUE: bsg_tile_group_barrier:center_y_cord <- $x12
	#DEBUG_VALUE: bsg_tile_group_barrier:center_x_cord <- $x18
	#DEBUG_VALUE: bsg_tile_group_barrier:p_col_b <- $x19
	#DEBUG_VALUE: bsg_tile_group_barrier:p_row_b <- $x8
	.loc	2 109 39 is_stmt 1      # bsg_manycore/software/bsg_manycore_lib/bsg_tile_group_barrier.h:109:39
	lui	a0, %hi(__bsg_y)
	lw	a0, %lo(__bsg_y)(a0)
	.loc	2 109 57 is_stmt 0      # bsg_manycore/software/bsg_manycore_lib/bsg_tile_group_barrier.h:109:57
	lbu	a1, 0(s3)
	.loc	2 109 45                # bsg_manycore/software/bsg_manycore_lib/bsg_tile_group_barrier.h:109:45
	sub	a0, a0, a1
	.loc	2 109 9                 # bsg_manycore/software/bsg_manycore_lib/bsg_tile_group_barrier.h:109:9
	add	a0, a3, a0
	addi	a1, zero, 1
	.loc	2 109 72                # bsg_manycore/software/bsg_manycore_lib/bsg_tile_group_barrier.h:109:72
	sb	a1, 2(a0)
.Ltmp23:
	.loc	2 189 13 is_stmt 1      # bsg_manycore/software/bsg_manycore_lib/bsg_tile_group_barrier.h:189:13
	lui	a0, %hi(__bsg_x)
	lw	a3, %lo(__bsg_x)(a0)
.Ltmp24:
.LBB0_6:                                # %if.end
	#DEBUG_VALUE: bsg_tile_group_barrier:center_y_cord <- $x12
	#DEBUG_VALUE: bsg_tile_group_barrier:center_x_cord <- $x18
	#DEBUG_VALUE: bsg_tile_group_barrier:p_col_b <- $x19
	#DEBUG_VALUE: bsg_tile_group_barrier:p_row_b <- $x8
	.loc	2 189 36 is_stmt 0      # bsg_manycore/software/bsg_manycore_lib/bsg_tile_group_barrier.h:189:36
	bne	a3, s2, .LBB0_17
.Ltmp25:
# %bb.7:                                # %if.end
	#DEBUG_VALUE: bsg_tile_group_barrier:center_y_cord <- $x12
	#DEBUG_VALUE: bsg_tile_group_barrier:center_x_cord <- $x18
	#DEBUG_VALUE: bsg_tile_group_barrier:p_col_b <- $x19
	#DEBUG_VALUE: bsg_tile_group_barrier:p_row_b <- $x8
	.loc	2 0 0                   # bsg_manycore/software/bsg_manycore_lib/bsg_tile_group_barrier.h:0:0
	lw	a0, %lo(__bsg_y)(a6)
	.loc	2 189 36                # bsg_manycore/software/bsg_manycore_lib/bsg_tile_group_barrier.h:189:36
	bne	a0, a2, .LBB0_17
.Ltmp26:
# %bb.8:                                # %if.then8
	#DEBUG_VALUE: bsg_tile_group_barrier:center_y_cord <- $x12
	#DEBUG_VALUE: bsg_tile_group_barrier:center_x_cord <- $x18
	#DEBUG_VALUE: bsg_tile_group_barrier:p_col_b <- $x19
	#DEBUG_VALUE: bsg_tile_group_barrier:p_row_b <- $x8
	#DEBUG_VALUE: bsg_col_barrier_alert:p_col_b <- $x19
	.loc	2 122 33 is_stmt 1      # bsg_manycore/software/bsg_manycore_lib/bsg_tile_group_barrier.h:122:33
	lbu	a2, 1(s3)
.Ltmp27:
	.loc	2 122 56 is_stmt 0      # bsg_manycore/software/bsg_manycore_lib/bsg_tile_group_barrier.h:122:56
	lbu	a3, 0(s3)
	.loc	2 122 45                # bsg_manycore/software/bsg_manycore_lib/bsg_tile_group_barrier.h:122:45
	sub	a1, a2, a3
.Ltmp28:
	#DEBUG_VALUE: poll_range:i <- 0
	#DEBUG_VALUE: poll_range:p <- [DW_OP_plus_uconst 2, DW_OP_stack_value] $x19
	#DEBUG_VALUE: poll_range:range <- $x11
	#DEBUG_VALUE: bsg_col_barrier_alert:y_range <- $x11
	.loc	2 208 17 is_stmt 1      # bsg_manycore/software/bsg_manycore_lib/bsg_tile_group_barrier.h:208:17
	bltz	a1, .LBB0_12
.Ltmp29:
# %bb.9:                                # %for.body.i.i49.preheader
	#DEBUG_VALUE: bsg_col_barrier_alert:y_range <- $x11
	#DEBUG_VALUE: poll_range:range <- $x11
	#DEBUG_VALUE: poll_range:p <- [DW_OP_plus_uconst 2, DW_OP_stack_value] $x19
	#DEBUG_VALUE: poll_range:i <- 0
	#DEBUG_VALUE: bsg_col_barrier_alert:p_col_b <- $x19
	#DEBUG_VALUE: bsg_tile_group_barrier:center_x_cord <- $x18
	#DEBUG_VALUE: bsg_tile_group_barrier:p_col_b <- $x19
	#DEBUG_VALUE: bsg_tile_group_barrier:p_row_b <- $x8
	.loc	2 0 17 is_stmt 0        # bsg_manycore/software/bsg_manycore_lib/bsg_tile_group_barrier.h:0:17
	mv	a5, zero
.Ltmp30:
.LBB0_10:                               # %for.body.i.i49
                                        # =>This Inner Loop Header: Depth=1
	#DEBUG_VALUE: bsg_col_barrier_alert:y_range <- $x11
	#DEBUG_VALUE: poll_range:range <- $x11
	#DEBUG_VALUE: poll_range:p <- [DW_OP_plus_uconst 2, DW_OP_stack_value] $x19
	#DEBUG_VALUE: bsg_col_barrier_alert:p_col_b <- $x19
	#DEBUG_VALUE: bsg_tile_group_barrier:center_x_cord <- $x18
	#DEBUG_VALUE: bsg_tile_group_barrier:p_col_b <- $x19
	#DEBUG_VALUE: bsg_tile_group_barrier:p_row_b <- $x8
	mv	a4, a5
.Ltmp31:
	#DEBUG_VALUE: poll_range:i <- $x14
	.loc	2 209 30 is_stmt 1      # bsg_manycore/software/bsg_manycore_lib/bsg_tile_group_barrier.h:209:30
	add	a0, s3, a5
	lbu	a0, 2(a0)
.Ltmp32:
	#DEBUG_VALUE: poll_range:i <- [DW_OP_plus_uconst 1, DW_OP_stack_value] $x14
	.loc	2 0 30 is_stmt 0        # bsg_manycore/software/bsg_manycore_lib/bsg_tile_group_barrier.h:0:30
	mv	a5, zero
.Ltmp33:
	.loc	2 209 30                # bsg_manycore/software/bsg_manycore_lib/bsg_tile_group_barrier.h:209:30
	beqz	a0, .LBB0_10
.Ltmp34:
# %bb.11:                               # %for.cond.i.i45
                                        #   in Loop: Header=BB0_10 Depth=1
	#DEBUG_VALUE: poll_range:i <- [DW_OP_plus_uconst 1, DW_OP_stack_value] $x14
	#DEBUG_VALUE: bsg_col_barrier_alert:y_range <- $x11
	#DEBUG_VALUE: poll_range:range <- $x11
	#DEBUG_VALUE: poll_range:p <- [DW_OP_plus_uconst 2, DW_OP_stack_value] $x19
	#DEBUG_VALUE: bsg_col_barrier_alert:p_col_b <- $x19
	#DEBUG_VALUE: bsg_tile_group_barrier:center_x_cord <- $x18
	#DEBUG_VALUE: bsg_tile_group_barrier:p_col_b <- $x19
	#DEBUG_VALUE: bsg_tile_group_barrier:p_row_b <- $x8
	.loc	2 208 41 is_stmt 1      # bsg_manycore/software/bsg_manycore_lib/bsg_tile_group_barrier.h:208:41
	addi	a5, a4, 1
.Ltmp35:
	#DEBUG_VALUE: poll_range:i <- $x15
	.loc	2 208 17 is_stmt 0      # bsg_manycore/software/bsg_manycore_lib/bsg_tile_group_barrier.h:208:17
	bne	a4, a1, .LBB0_10
.Ltmp36:
.LBB0_12:                               # %_Z10poll_rangeiPh.exit.i
	#DEBUG_VALUE: bsg_col_barrier_alert:y_range <- $x11
	#DEBUG_VALUE: bsg_col_barrier_alert:p_col_b <- $x19
	#DEBUG_VALUE: bsg_tile_group_barrier:center_x_cord <- $x18
	#DEBUG_VALUE: bsg_tile_group_barrier:p_col_b <- $x19
	#DEBUG_VALUE: bsg_tile_group_barrier:p_row_b <- $x8
	#DEBUG_VALUE: alert_col:p_col_b <- $x19
	#DEBUG_VALUE: alert_col:i <- $x13
	.loc	2 217 9 is_stmt 1       # bsg_manycore/software/bsg_manycore_lib/bsg_tile_group_barrier.h:217:9
	bltu	a2, a3, .LBB0_15
.Ltmp37:
# %bb.13:                               # %for.body.lr.ph.i12.i
	#DEBUG_VALUE: alert_col:i <- $x13
	#DEBUG_VALUE: alert_col:p_col_b <- $x19
	#DEBUG_VALUE: bsg_col_barrier_alert:y_range <- $x11
	#DEBUG_VALUE: bsg_col_barrier_alert:p_col_b <- $x19
	#DEBUG_VALUE: bsg_tile_group_barrier:center_x_cord <- $x18
	#DEBUG_VALUE: bsg_tile_group_barrier:p_col_b <- $x19
	#DEBUG_VALUE: bsg_tile_group_barrier:p_row_b <- $x8
	#DEBUG_VALUE: alert_col:i <- $x13
	.loc	2 0 0 is_stmt 0         # bsg_manycore/software/bsg_manycore_lib/bsg_tile_group_barrier.h:0:0
	or	a0, a7, s3
.Ltmp38:
	.loc	2 217 9                 # bsg_manycore/software/bsg_manycore_lib/bsg_tile_group_barrier.h:217:9
	addi	a4, a3, -1
	slli	a3, a3, 24
.Ltmp39:
	.loc	2 0 9                   # bsg_manycore/software/bsg_manycore_lib/bsg_tile_group_barrier.h:0:9
	lui	a6, 131072
	addi	a7, zero, 1
	lui	a5, 4096
.Ltmp40:
.LBB0_14:                               # %for.body.i14.i
                                        # =>This Inner Loop Header: Depth=1
	#DEBUG_VALUE: alert_col:p_col_b <- $x19
	#DEBUG_VALUE: bsg_col_barrier_alert:y_range <- $x11
	#DEBUG_VALUE: bsg_col_barrier_alert:p_col_b <- $x19
	#DEBUG_VALUE: bsg_tile_group_barrier:center_x_cord <- $x18
	#DEBUG_VALUE: bsg_tile_group_barrier:p_col_b <- $x19
	#DEBUG_VALUE: bsg_tile_group_barrier:p_row_b <- $x8
	#DEBUG_VALUE: alert_col:i <- undef
	.loc	2 218 55 is_stmt 1      # bsg_manycore/software/bsg_manycore_lib/bsg_tile_group_barrier.h:218:55
	or	s1, a0, a3
	or	s1, s1, a6
.Ltmp41:
	#DEBUG_VALUE: alert_col:p_remote_barrier <- $x9
	.loc	2 221 47                # bsg_manycore/software/bsg_manycore_lib/bsg_tile_group_barrier.h:221:47
	sw	a7, 4(s1)
.Ltmp42:
	#DEBUG_VALUE: alert_col:i <- [DW_OP_plus_uconst 1, DW_OP_stack_value] undef
	.loc	2 217 44                # bsg_manycore/software/bsg_manycore_lib/bsg_tile_group_barrier.h:217:44
	addi	a4, a4, 1
	add	a3, a3, a5
.Ltmp43:
	.loc	2 217 9 is_stmt 0       # bsg_manycore/software/bsg_manycore_lib/bsg_tile_group_barrier.h:217:9
	bltu	a4, a2, .LBB0_14
.Ltmp44:
.LBB0_15:                               # %_Z9alert_colP17_bsg_col_barrier_.exit.i
	#DEBUG_VALUE: bsg_col_barrier_alert:y_range <- $x11
	#DEBUG_VALUE: bsg_col_barrier_alert:p_col_b <- $x19
	#DEBUG_VALUE: bsg_tile_group_barrier:center_x_cord <- $x18
	#DEBUG_VALUE: bsg_tile_group_barrier:p_col_b <- $x19
	#DEBUG_VALUE: bsg_tile_group_barrier:p_row_b <- $x8
	#DEBUG_VALUE: bsg_col_barrier_alert:i <- 0
	.loc	2 131 9 is_stmt 1       # bsg_manycore/software/bsg_manycore_lib/bsg_tile_group_barrier.h:131:9
	bltz	a1, .LBB0_18
.Ltmp45:
# %bb.16:                               # %for.body.preheader.i
	#DEBUG_VALUE: bsg_col_barrier_alert:i <- 0
	#DEBUG_VALUE: bsg_col_barrier_alert:y_range <- $x11
	#DEBUG_VALUE: bsg_col_barrier_alert:p_col_b <- $x19
	#DEBUG_VALUE: bsg_tile_group_barrier:center_x_cord <- $x18
	#DEBUG_VALUE: bsg_tile_group_barrier:p_col_b <- $x19
	#DEBUG_VALUE: bsg_tile_group_barrier:p_row_b <- $x8
	addi	a2, a1, 1
	addi	a0, s3, 2
.Ltmp46:
	.loc	2 132 40                # bsg_manycore/software/bsg_manycore_lib/bsg_tile_group_barrier.h:132:40
	mv	a1, zero
.Ltmp47:
	call	memset
.Ltmp48:
	#DEBUG_VALUE: bsg_col_barrier_alert:i <- undef
	.loc	2 192 13                # bsg_manycore/software/bsg_manycore_lib/bsg_tile_group_barrier.h:192:13
	lui	a0, %hi(__bsg_x)
	lw	a3, %lo(__bsg_x)(a0)
.Ltmp49:
.LBB0_17:                               # %if.end9
	#DEBUG_VALUE: bsg_tile_group_barrier:center_x_cord <- $x18
	#DEBUG_VALUE: bsg_tile_group_barrier:p_col_b <- $x19
	#DEBUG_VALUE: bsg_tile_group_barrier:p_row_b <- $x8
	.loc	2 192 13 is_stmt 0      # bsg_manycore/software/bsg_manycore_lib/bsg_tile_group_barrier.h:192:13
	bne	a3, s2, .LBB0_27
.Ltmp50:
.LBB0_18:                               # %if.then11
	#DEBUG_VALUE: bsg_tile_group_barrier:center_x_cord <- $x18
	#DEBUG_VALUE: bsg_tile_group_barrier:p_col_b <- $x19
	#DEBUG_VALUE: bsg_tile_group_barrier:p_row_b <- $x8
	#DEBUG_VALUE: bsg_row_barrier_alert:p_row_b <- $x8
	#DEBUG_VALUE: bsg_row_barrier_alert:p_col_b <- $x19
	.loc	2 142 33 is_stmt 1      # bsg_manycore/software/bsg_manycore_lib/bsg_tile_group_barrier.h:142:33
	lbu	a6, 1(s0)
	.loc	2 142 56 is_stmt 0      # bsg_manycore/software/bsg_manycore_lib/bsg_tile_group_barrier.h:142:56
	lbu	a7, 0(s0)
.Ltmp51:
	#DEBUG_VALUE: bsg_wait_local_int:cond <- 1
	#DEBUG_VALUE: bsg_wait_local_int:ptr <- [DW_OP_plus_uconst 4, DW_OP_stack_value] $x19
	#DEBUG_VALUE: bsg_row_barrier_alert:x_range <- undef
	.loc	2 0 56                  # bsg_manycore/software/bsg_manycore_lib/bsg_tile_group_barrier.h:0:56
	addi	a0, s3, 4
	addi	a1, zero, 1
.Ltmp52:
.LBB0_19:                               # %while.cond.i.i57
                                        # =>This Inner Loop Header: Depth=1
	#DEBUG_VALUE: bsg_wait_local_int:ptr <- [DW_OP_plus_uconst 4, DW_OP_stack_value] $x19
	#DEBUG_VALUE: bsg_wait_local_int:cond <- 1
	#DEBUG_VALUE: bsg_row_barrier_alert:p_col_b <- $x19
	#DEBUG_VALUE: bsg_row_barrier_alert:p_row_b <- $x8
	#DEBUG_VALUE: bsg_tile_group_barrier:center_x_cord <- $x18
	#DEBUG_VALUE: bsg_tile_group_barrier:p_col_b <- $x19
	#DEBUG_VALUE: bsg_tile_group_barrier:p_row_b <- $x8
	#DEBUG_VALUE: bsg_lr:p <- [DW_OP_plus_uconst 4, DW_OP_stack_value] $x19
	.loc	4 111 41 is_stmt 1      # bsg_manycore/software/bsg_manycore_lib/bsg_manycore.h:111:41
	#APP
	lr.w    a2,0(a0)

	#NO_APP
.Ltmp53:
	#DEBUG_VALUE: bsg_wait_local_int:tmp <- $x12
	#DEBUG_VALUE: bsg_lr:tmp <- $x12
	.loc	2 241 13                # bsg_manycore/software/bsg_manycore_lib/bsg_tile_group_barrier.h:241:13
	beq	a2, a1, .LBB0_21
.Ltmp54:
# %bb.20:                               # %if.else.i.i59
                                        #   in Loop: Header=BB0_19 Depth=1
	#DEBUG_VALUE: bsg_wait_local_int:tmp <- $x12
	#DEBUG_VALUE: bsg_wait_local_int:ptr <- [DW_OP_plus_uconst 4, DW_OP_stack_value] $x19
	#DEBUG_VALUE: bsg_wait_local_int:cond <- 1
	#DEBUG_VALUE: bsg_row_barrier_alert:p_col_b <- $x19
	#DEBUG_VALUE: bsg_row_barrier_alert:p_row_b <- $x8
	#DEBUG_VALUE: bsg_tile_group_barrier:center_x_cord <- $x18
	#DEBUG_VALUE: bsg_tile_group_barrier:p_col_b <- $x19
	#DEBUG_VALUE: bsg_tile_group_barrier:p_row_b <- $x8
	#DEBUG_VALUE: bsg_lr_aq:p <- [DW_OP_plus_uconst 4, DW_OP_stack_value] $x19
	.loc	4 112 41                # bsg_manycore/software/bsg_manycore_lib/bsg_manycore.h:112:41
	#APP
	lr.w.aq a2,0(a0)

	#NO_APP
.Ltmp55:
	#DEBUG_VALUE: bsg_lr_aq:tmp <- $x12
	#DEBUG_VALUE: bsg_wait_local_int:tmp <- $x12
	.loc	2 244 17                # bsg_manycore/software/bsg_manycore_lib/bsg_tile_group_barrier.h:244:17
	bne	a2, a1, .LBB0_19
.Ltmp56:
.LBB0_21:                               # %_Z18bsg_wait_local_intPii.exit.i
	#DEBUG_VALUE: bsg_row_barrier_alert:p_col_b <- $x19
	#DEBUG_VALUE: bsg_row_barrier_alert:p_row_b <- $x8
	#DEBUG_VALUE: bsg_tile_group_barrier:center_x_cord <- $x18
	#DEBUG_VALUE: bsg_tile_group_barrier:p_col_b <- $x19
	#DEBUG_VALUE: bsg_tile_group_barrier:p_row_b <- $x8
	#DEBUG_VALUE: alert_row:p_row_b <- $x8
	.loc	2 228 27                # bsg_manycore/software/bsg_manycore_lib/bsg_tile_group_barrier.h:228:27
	lbu	a0, 0(s0)
.Ltmp57:
	#DEBUG_VALUE: alert_row:i <- $x10
	.loc	2 228 57 is_stmt 0      # bsg_manycore/software/bsg_manycore_lib/bsg_tile_group_barrier.h:228:57
	lbu	a2, 1(s0)
.Ltmp58:
	.loc	2 228 9                 # bsg_manycore/software/bsg_manycore_lib/bsg_tile_group_barrier.h:228:9
	bltu	a2, a0, .LBB0_24
.Ltmp59:
# %bb.22:                               # %for.body.lr.ph.i.i63
	#DEBUG_VALUE: alert_row:i <- $x10
	#DEBUG_VALUE: alert_row:p_row_b <- $x8
	#DEBUG_VALUE: bsg_row_barrier_alert:p_col_b <- $x19
	#DEBUG_VALUE: bsg_row_barrier_alert:p_row_b <- $x8
	#DEBUG_VALUE: bsg_tile_group_barrier:center_x_cord <- $x18
	#DEBUG_VALUE: bsg_tile_group_barrier:p_col_b <- $x19
	#DEBUG_VALUE: bsg_tile_group_barrier:p_row_b <- $x8
	#DEBUG_VALUE: alert_row:i <- $x10
	.loc	2 0 0                   # bsg_manycore/software/bsg_manycore_lib/bsg_tile_group_barrier.h:0:0
	lui	a1, %hi(__bsg_y)
	lw	a1, %lo(__bsg_y)(a1)
	slli	a1, a1, 24
	or	a3, a1, s0
.Ltmp60:
	.loc	2 228 9                 # bsg_manycore/software/bsg_manycore_lib/bsg_tile_group_barrier.h:228:9
	addi	a4, a0, -1
	slli	a5, a0, 18
	lui	t0, 131072
	addi	a1, zero, 1
	lui	s1, 64
.Ltmp61:
.LBB0_23:                               # %for.body.i.i70
                                        # =>This Inner Loop Header: Depth=1
	#DEBUG_VALUE: alert_row:p_row_b <- $x8
	#DEBUG_VALUE: bsg_row_barrier_alert:p_col_b <- $x19
	#DEBUG_VALUE: bsg_row_barrier_alert:p_row_b <- $x8
	#DEBUG_VALUE: bsg_tile_group_barrier:center_x_cord <- $x18
	#DEBUG_VALUE: bsg_tile_group_barrier:p_col_b <- $x19
	#DEBUG_VALUE: bsg_tile_group_barrier:p_row_b <- $x8
	#DEBUG_VALUE: alert_row:i <- undef
	.loc	2 229 55 is_stmt 1      # bsg_manycore/software/bsg_manycore_lib/bsg_tile_group_barrier.h:229:55
	or	a0, a3, a5
	or	a0, a0, t0
.Ltmp62:
	#DEBUG_VALUE: alert_row:p_remote_barrier <- $x10
	.loc	2 232 47                # bsg_manycore/software/bsg_manycore_lib/bsg_tile_group_barrier.h:232:47
	sw	a1, 4(a0)
.Ltmp63:
	#DEBUG_VALUE: alert_row:i <- [DW_OP_plus_uconst 1, DW_OP_stack_value] undef
	.loc	2 228 44                # bsg_manycore/software/bsg_manycore_lib/bsg_tile_group_barrier.h:228:44
	addi	a4, a4, 1
	add	a5, a5, s1
.Ltmp64:
	.loc	2 228 9 is_stmt 0       # bsg_manycore/software/bsg_manycore_lib/bsg_tile_group_barrier.h:228:9
	bltu	a4, a2, .LBB0_23
.Ltmp65:
.LBB0_24:                               # %_Z9alert_rowP17_bsg_row_barrier_.exit.i
	#DEBUG_VALUE: bsg_row_barrier_alert:p_col_b <- $x19
	#DEBUG_VALUE: bsg_row_barrier_alert:p_row_b <- $x8
	#DEBUG_VALUE: bsg_tile_group_barrier:center_x_cord <- $x18
	#DEBUG_VALUE: bsg_tile_group_barrier:p_col_b <- $x19
	#DEBUG_VALUE: bsg_tile_group_barrier:p_row_b <- $x8
	#DEBUG_VALUE: bsg_row_barrier_alert:i <- 0
	.loc	2 153 9 is_stmt 1       # bsg_manycore/software/bsg_manycore_lib/bsg_tile_group_barrier.h:153:9
	bltu	a6, a7, .LBB0_26
.Ltmp66:
# %bb.25:                               # %for.body.preheader.i72
	#DEBUG_VALUE: bsg_row_barrier_alert:i <- 0
	#DEBUG_VALUE: bsg_row_barrier_alert:p_col_b <- $x19
	#DEBUG_VALUE: bsg_row_barrier_alert:p_row_b <- $x8
	#DEBUG_VALUE: bsg_tile_group_barrier:center_x_cord <- $x18
	#DEBUG_VALUE: bsg_tile_group_barrier:p_col_b <- $x19
	#DEBUG_VALUE: bsg_tile_group_barrier:p_row_b <- $x8
	sub	a0, a6, a7
	addi	a2, a0, 1
	addi	a0, s0, 2
.Ltmp67:
	.loc	2 154 40                # bsg_manycore/software/bsg_manycore_lib/bsg_tile_group_barrier.h:154:40
	mv	a1, zero
	call	memset
.Ltmp68:
	#DEBUG_VALUE: bsg_row_barrier_alert:i <- undef
.LBB0_26:                               # %_Z21bsg_row_barrier_alertP17_bsg_row_barrier_P17_bsg_col_barrier_.exit
	#DEBUG_VALUE: bsg_row_barrier_alert:i <- 0
	#DEBUG_VALUE: bsg_row_barrier_alert:p_col_b <- $x19
	#DEBUG_VALUE: bsg_row_barrier_alert:p_row_b <- $x8
	#DEBUG_VALUE: bsg_tile_group_barrier:center_x_cord <- $x18
	#DEBUG_VALUE: bsg_tile_group_barrier:p_col_b <- $x19
	#DEBUG_VALUE: bsg_tile_group_barrier:p_row_b <- $x8
	.loc	2 157 33                # bsg_manycore/software/bsg_manycore_lib/bsg_tile_group_barrier.h:157:33
	sw	zero, 4(s3)
.Ltmp69:
.LBB0_27:                               # %if.end12
	#DEBUG_VALUE: bsg_tile_group_barrier:center_x_cord <- $x18
	#DEBUG_VALUE: bsg_tile_group_barrier:p_col_b <- $x19
	#DEBUG_VALUE: bsg_tile_group_barrier:p_row_b <- $x8
	#DEBUG_VALUE: bsg_tile_wait:p_row_b <- $x8
	#DEBUG_VALUE: bsg_wait_local_int:ptr <- [DW_OP_plus_uconst 4, DW_OP_stack_value] $x8
	#DEBUG_VALUE: bsg_wait_local_int:cond <- 1
	.loc	2 0 33 is_stmt 0        # bsg_manycore/software/bsg_manycore_lib/bsg_tile_group_barrier.h:0:33
	addi	a0, s0, 4
	addi	a1, zero, 1
.Ltmp70:
.LBB0_28:                               # %while.cond.i.i
                                        # =>This Inner Loop Header: Depth=1
	#DEBUG_VALUE: bsg_wait_local_int:cond <- 1
	#DEBUG_VALUE: bsg_wait_local_int:ptr <- [DW_OP_plus_uconst 4, DW_OP_stack_value] $x8
	#DEBUG_VALUE: bsg_tile_wait:p_row_b <- $x8
	#DEBUG_VALUE: bsg_tile_group_barrier:center_x_cord <- $x18
	#DEBUG_VALUE: bsg_tile_group_barrier:p_col_b <- $x19
	#DEBUG_VALUE: bsg_tile_group_barrier:p_row_b <- $x8
	#DEBUG_VALUE: bsg_lr:p <- [DW_OP_plus_uconst 4, DW_OP_stack_value] $x8
	.loc	4 111 41 is_stmt 1      # bsg_manycore/software/bsg_manycore_lib/bsg_manycore.h:111:41
	#APP
	lr.w    a2,0(a0)

	#NO_APP
.Ltmp71:
	#DEBUG_VALUE: bsg_wait_local_int:tmp <- $x12
	#DEBUG_VALUE: bsg_lr:tmp <- $x12
	.loc	2 241 13                # bsg_manycore/software/bsg_manycore_lib/bsg_tile_group_barrier.h:241:13
	beq	a2, a1, .LBB0_30
.Ltmp72:
# %bb.29:                               # %if.else.i.i
                                        #   in Loop: Header=BB0_28 Depth=1
	#DEBUG_VALUE: bsg_wait_local_int:tmp <- $x12
	#DEBUG_VALUE: bsg_wait_local_int:cond <- 1
	#DEBUG_VALUE: bsg_wait_local_int:ptr <- [DW_OP_plus_uconst 4, DW_OP_stack_value] $x8
	#DEBUG_VALUE: bsg_tile_wait:p_row_b <- $x8
	#DEBUG_VALUE: bsg_tile_group_barrier:center_x_cord <- $x18
	#DEBUG_VALUE: bsg_tile_group_barrier:p_col_b <- $x19
	#DEBUG_VALUE: bsg_tile_group_barrier:p_row_b <- $x8
	#DEBUG_VALUE: bsg_lr_aq:p <- [DW_OP_plus_uconst 4, DW_OP_stack_value] $x8
	.loc	4 112 41                # bsg_manycore/software/bsg_manycore_lib/bsg_manycore.h:112:41
	#APP
	lr.w.aq a2,0(a0)

	#NO_APP
.Ltmp73:
	#DEBUG_VALUE: bsg_lr_aq:tmp <- $x12
	#DEBUG_VALUE: bsg_wait_local_int:tmp <- $x12
	.loc	2 244 17                # bsg_manycore/software/bsg_manycore_lib/bsg_tile_group_barrier.h:244:17
	bne	a2, a1, .LBB0_28
.Ltmp74:
.LBB0_30:                               # %_Z13bsg_tile_waitP17_bsg_row_barrier_.exit
	#DEBUG_VALUE: bsg_tile_wait:p_row_b <- $x8
	#DEBUG_VALUE: bsg_tile_group_barrier:center_x_cord <- $x18
	#DEBUG_VALUE: bsg_tile_group_barrier:p_col_b <- $x19
	#DEBUG_VALUE: bsg_tile_group_barrier:p_row_b <- $x8
	.loc	2 166 31                # bsg_manycore/software/bsg_manycore_lib/bsg_tile_group_barrier.h:166:31
	sw	zero, 4(s0)
.Ltmp75:
	.loc	2 201 1                 # bsg_manycore/software/bsg_manycore_lib/bsg_tile_group_barrier.h:201:1
	lw	s3, 12(sp)
.Ltmp76:
	lw	s2, 16(sp)
.Ltmp77:
	lw	s1, 20(sp)
	lw	s0, 24(sp)
.Ltmp78:
	lw	ra, 28(sp)
	addi	sp, sp, 32
	ret
.Ltmp79:
.Lfunc_end0:
	.size	_Z22bsg_tile_group_barrierP17_bsg_row_barrier_P17_bsg_col_barrier_, .Lfunc_end0-_Z22bsg_tile_group_barrierP17_bsg_row_barrier_P17_bsg_col_barrier_
	.cfi_endproc
                                        # -- End function
	.globl	kernel_vector_add_int   # -- Begin function kernel_vector_add_int
	.p2align	2
	.type	kernel_vector_add_int,@function
kernel_vector_add_int:                  # @kernel_vector_add_int
.Lfunc_begin1:
	.loc	3 33 0                  # kernel/v3/kernel.cpp:33:0
	.cfi_startproc
# %bb.0:                                # %entry
	#DEBUG_VALUE: kernel_vector_add_int:A <- $x10
	#DEBUG_VALUE: kernel_vector_add_int:B <- $x11
	#DEBUG_VALUE: kernel_vector_add_int:C <- $x12
	#DEBUG_VALUE: kernel_vector_add_int:WIDTH <- $x13
	#DEBUG_VALUE: kernel_vector_add_int:block_size_y <- $x14
	#DEBUG_VALUE: kernel_vector_add_int:block_size_x <- $x15
	#DEBUG_VALUE: kernel_vector_add_int:tag <- $x16
	#DEBUG_VALUE: kernel_vector_add_int:iter <- $x17
	addi	sp, sp, -64
	.cfi_def_cfa_offset 64
.Ltmp80:
	.loc	3 34 17 prologue_end    # kernel/v3/kernel.cpp:34:17
	sw	ra, 60(sp)
	sw	s0, 56(sp)
	sw	s1, 52(sp)
	sw	s2, 48(sp)
	sw	s3, 44(sp)
	sw	s4, 40(sp)
	sw	s5, 36(sp)
	sw	s6, 32(sp)
	sw	s7, 28(sp)
	sw	s8, 24(sp)
	sw	s9, 20(sp)
	sw	s10, 16(sp)
	sw	s11, 12(sp)
	.cfi_offset ra, -4
	.cfi_offset s0, -8
	.cfi_offset s1, -12
	.cfi_offset s2, -16
	.cfi_offset s3, -20
	.cfi_offset s4, -24
	.cfi_offset s5, -28
	.cfi_offset s6, -32
	.cfi_offset s7, -36
	.cfi_offset s8, -40
	.cfi_offset s9, -44
	.cfi_offset s10, -48
	.cfi_offset s11, -52
	lui	t2, %hi(__bsg_grp_org_y)
	lw	a4, %lo(__bsg_grp_org_y)(t2)
.Ltmp81:
	lui	t3, %hi(__bsg_y)
	lw	s0, %lo(__bsg_y)(t3)
	lui	s1, 64
	addi	s1, s1, -16
	add	t0, s0, a4
	lui	a4, %hi(__bsg_grp_org_x)
	lw	t1, %lo(__bsg_grp_org_x)(a4)
	lui	a4, %hi(__bsg_x)
	lw	t4, %lo(__bsg_x)(a4)
	slli	s0, t0, 24
	lui	a4, 258048
	and	t0, s0, a4
	add	a4, t4, t1
	lui	s0, %hi(__bsg_tile_group_id)
	lw	t1, %lo(__bsg_tile_group_id)(s0)
	slli	a4, a4, 18
	lui	s0, 4032
	and	a4, a4, s0
	slli	s0, t1, 4
	and	s0, s0, s1
	or	a4, t0, a4
	or	a4, a4, s0
	lui	s0, 524288
	or	a4, a4, s0
.Ltmp82:
	#DEBUG_VALUE: val <- $x14
	.loc	3 0 17 is_stmt 0        # kernel/v3/kernel.cpp:0:17
	lui	s0, 266241
.Ltmp83:
	#DEBUG_VALUE: ptr <- undef
	.loc	3 34 17                 # kernel/v3/kernel.cpp:34:17
	sw	a4, -756(s0)
.Ltmp84:
	#DEBUG_VALUE: kernel_vector_add_int:rc <- undef
	.loc	3 0 0                   # kernel/v3/kernel.cpp:0:0
	lw	t0, %lo(__bsg_grp_org_y)(t2)
	lw	a4, %lo(__bsg_y)(t3)
.Ltmp85:
	#DEBUG_VALUE: kernel_vector_add_int:iter <- $x17
	#DEBUG_VALUE: kernel_vector_add_int:tag <- $x16
	sw	a5, 8(sp)
.Ltmp86:
	#DEBUG_VALUE: kernel_vector_add_int:block_size_x <- [DW_OP_plus_uconst 8] [$x2+0]
	sw	a3, 4(sp)
.Ltmp87:
	#DEBUG_VALUE: kernel_vector_add_int:WIDTH <- [DW_OP_plus_uconst 4] [$x2+0]
	sw	a2, 0(sp)
.Ltmp88:
	#DEBUG_VALUE: kernel_vector_add_int:C <- [$x2+0]
	mv	s5, a1
.Ltmp89:
	#DEBUG_VALUE: kernel_vector_add_int:B <- $x21
	mv	s10, a0
.Ltmp90:
	#DEBUG_VALUE: kernel_vector_add_int:A <- $x26
	add	a0, a4, t0
	slli	a1, a0, 24
.Ltmp91:
	#DEBUG_VALUE: i <- 0
	andi	s8, a6, 15
.Ltmp92:
	.loc	3 36 17 is_stmt 1       # kernel/v3/kernel.cpp:36:17
	addi	s9, a7, 1
.Ltmp93:
	.loc	3 34 17                 # kernel/v3/kernel.cpp:34:17
	lui	s11, %hi(__bsg_grp_org_x)
	lui	s6, %hi(__bsg_x)
	lui	s7, 258048
	lui	s2, %hi(__bsg_tile_group_id)
	lui	s3, 4032
	lui	s4, 266241
	lui	s0, %hi(__bsg_y)
.Ltmp94:
.LBB1_1:                                # %do.body11
                                        # =>This Inner Loop Header: Depth=1
	#DEBUG_VALUE: i <- 0
	#DEBUG_VALUE: kernel_vector_add_int:A <- $x26
	#DEBUG_VALUE: kernel_vector_add_int:B <- $x21
	#DEBUG_VALUE: kernel_vector_add_int:C <- [$x2+0]
	#DEBUG_VALUE: kernel_vector_add_int:WIDTH <- [DW_OP_plus_uconst 4] [$x2+0]
	#DEBUG_VALUE: kernel_vector_add_int:block_size_x <- [DW_OP_plus_uconst 8] [$x2+0]
	#DEBUG_VALUE: i <- undef
	.loc	3 37 25                 # kernel/v3/kernel.cpp:37:25
	lw	a0, %lo(__bsg_grp_org_x)(s11)
	lw	a2, %lo(__bsg_x)(s6)
	and	a1, a1, s7
	lw	a3, %lo(__bsg_tile_group_id)(s2)
	add	a0, a2, a0
	slli	a0, a0, 18
	and	a0, a0, s3
	slli	a2, a3, 4
	and	a2, a2, s1
	or	a1, a1, s8
	or	a0, a1, a0
	or	a0, a0, a2
.Ltmp95:
	#DEBUG_VALUE: ptr <- undef
	#DEBUG_VALUE: val <- $x10
	.loc	3 37 25 is_stmt 0       # kernel/v3/kernel.cpp:37:25
	sw	a0, -756(s4)
.Ltmp96:
	.loc	3 38 30 is_stmt 1       # kernel/v3/kernel.cpp:38:30
	mv	a0, s10
.Ltmp97:
	mv	a1, s5
	lw	a2, 0(sp)
	lw	a3, 4(sp)
	lw	a4, 8(sp)
	call	_Z40kernel_vector_add_1D_grid_2D_tile_groupsIiiiEiPT_PT0_PT1_jj
.Ltmp98:
	.loc	3 34 17                 # kernel/v3/kernel.cpp:34:17
	lui	a5, %hi(__bsg_grp_org_y)
.Ltmp99:
	.loc	3 40 25                 # kernel/v3/kernel.cpp:40:25
	lw	a1, %lo(__bsg_grp_org_y)(a5)
	lw	a2, %lo(__bsg_y)(s0)
	lw	a3, %lo(__bsg_grp_org_x)(s11)
	lw	a4, %lo(__bsg_x)(s6)
	add	a1, a2, a1
	slli	a1, a1, 24
	add	a2, a4, a3
	lw	a3, %lo(__bsg_tile_group_id)(s2)
	and	a1, a1, s7
	slli	a2, a2, 18
	and	a2, a2, s3
	slli	a3, a3, 4
	and	a3, a3, s1
	or	a1, s8, a1
	or	a1, a1, a2
	or	a1, a1, a3
	lui	a2, 262144
	or	a1, a1, a2
.Ltmp100:
	#DEBUG_VALUE: ptr <- undef
	#DEBUG_VALUE: val <- $x11
	.loc	3 40 25 is_stmt 0       # kernel/v3/kernel.cpp:40:25
	sw	a1, -756(s4)
.Ltmp101:
	#DEBUG_VALUE: i <- [DW_OP_plus_uconst 1, DW_OP_stack_value] undef
	.loc	3 0 0                   # kernel/v3/kernel.cpp:0:0
	lw	a1, %lo(__bsg_grp_org_y)(a5)
.Ltmp102:
	lw	a2, %lo(__bsg_y)(s0)
.Ltmp103:
	#DEBUG_VALUE: kernel_vector_add_int:rc <- $x10
	add	a1, a2, a1
.Ltmp104:
	.loc	3 36 34 is_stmt 1       # kernel/v3/kernel.cpp:36:34
	addi	s9, s9, -1
.Ltmp105:
	.loc	3 0 0 is_stmt 0         # kernel/v3/kernel.cpp:0:0
	slli	a1, a1, 24
.Ltmp106:
	.loc	3 36 17                 # kernel/v3/kernel.cpp:36:17
	bnez	s9, .LBB1_1
.Ltmp107:
# %bb.2:                                # %for.cond.cleanup
	#DEBUG_VALUE: kernel_vector_add_int:rc <- $x10
	#DEBUG_VALUE: kernel_vector_add_int:A <- $x26
	#DEBUG_VALUE: kernel_vector_add_int:B <- $x21
	#DEBUG_VALUE: kernel_vector_add_int:C <- [$x2+0]
	#DEBUG_VALUE: kernel_vector_add_int:WIDTH <- [DW_OP_plus_uconst 4] [$x2+0]
	#DEBUG_VALUE: kernel_vector_add_int:block_size_x <- [DW_OP_plus_uconst 8] [$x2+0]
	#DEBUG_VALUE: kernel_vector_add_int:rc <- $x10
	.loc	3 42 17 is_stmt 1       # kernel/v3/kernel.cpp:42:17
	lui	a2, %hi(__bsg_grp_org_x)
	lw	a2, %lo(__bsg_grp_org_x)(a2)
	lui	a3, %hi(__bsg_x)
	lw	a3, %lo(__bsg_x)(a3)
	add	a2, a3, a2
	lui	a3, %hi(__bsg_tile_group_id)
	lw	a3, %lo(__bsg_tile_group_id)(a3)
	slli	a2, a2, 18
	lui	a4, 4032
	and	a2, a2, a4
	slli	a3, a3, 4
	and	a3, a3, s1
	or	a1, a1, a2
	or	a1, a1, a3
	lui	a2, 786432
	or	a1, a1, a2
.Ltmp108:
	#DEBUG_VALUE: val <- $x11
	.loc	3 0 17 is_stmt 0        # kernel/v3/kernel.cpp:0:17
	lui	a2, 266241
.Ltmp109:
	#DEBUG_VALUE: ptr <- undef
	.loc	3 42 17                 # kernel/v3/kernel.cpp:42:17
	sw	a1, -756(a2)
.Ltmp110:
	.loc	3 44 17 is_stmt 1       # kernel/v3/kernel.cpp:44:17
	lw	s11, 12(sp)
	lw	s10, 16(sp)
.Ltmp111:
	lw	s9, 20(sp)
	lw	s8, 24(sp)
	lw	s7, 28(sp)
	lw	s6, 32(sp)
	lw	s5, 36(sp)
.Ltmp112:
	lw	s4, 40(sp)
	lw	s3, 44(sp)
	lw	s2, 48(sp)
	lw	s1, 52(sp)
	lw	s0, 56(sp)
	lw	ra, 60(sp)
	addi	sp, sp, 64
	ret
.Ltmp113:
.Lfunc_end1:
	.size	kernel_vector_add_int, .Lfunc_end1-kernel_vector_add_int
	.cfi_endproc
                                        # -- End function
	.section	.text._Z40kernel_vector_add_1D_grid_2D_tile_groupsIiiiEiPT_PT0_PT1_jj,"axG",@progbits,_Z40kernel_vector_add_1D_grid_2D_tile_groupsIiiiEiPT_PT0_PT1_jj,comdat
	.weak	_Z40kernel_vector_add_1D_grid_2D_tile_groupsIiiiEiPT_PT0_PT1_jj # -- Begin function _Z40kernel_vector_add_1D_grid_2D_tile_groupsIiiiEiPT_PT0_PT1_jj
	.p2align	2
	.type	_Z40kernel_vector_add_1D_grid_2D_tile_groupsIiiiEiPT_PT0_PT1_jj,@function
_Z40kernel_vector_add_1D_grid_2D_tile_groupsIiiiEiPT_PT0_PT1_jj: # @_Z40kernel_vector_add_1D_grid_2D_tile_groupsIiiiEiPT_PT0_PT1_jj
.Lfunc_begin2:
	.loc	1 87 0                  # kernel/include/vector_add.hpp:87:0
	.cfi_startproc
# %bb.0:                                # %entry
	#DEBUG_VALUE: kernel_vector_add_1D_grid_2D_tile_groups<int, int, int>:A <- $x10
	#DEBUG_VALUE: kernel_vector_add_1D_grid_2D_tile_groups<int, int, int>:B <- $x11
	#DEBUG_VALUE: kernel_vector_add_1D_grid_2D_tile_groups<int, int, int>:C <- $x12
	#DEBUG_VALUE: kernel_vector_add_1D_grid_2D_tile_groups<int, int, int>:WIDTH <- $x13
	#DEBUG_VALUE: kernel_vector_add_1D_grid_2D_tile_groups<int, int, int>:block_size_x <- $x14
	addi	sp, sp, -16
	.cfi_def_cfa_offset 16
.Ltmp114:
	.loc	1 92 26 prologue_end    # kernel/include/vector_add.hpp:92:26
	sw	ra, 12(sp)
	.cfi_offset ra, -4
	lui	a3, %hi(__bsg_tile_group_id_x)
.Ltmp115:
	lw	a5, %lo(__bsg_tile_group_id_x)(a3)
.Ltmp116:
	.loc	1 100 28                # kernel/include/vector_add.hpp:100:28
	lui	a3, %hi(__bsg_id)
	lw	a3, %lo(__bsg_id)(a3)
.Ltmp117:
	#DEBUG_VALUE: kernel_vector_add_1D_grid_2D_tile_groups<int, int, int>:block_size_x <- $x14
	.loc	1 92 48                 # kernel/include/vector_add.hpp:92:48
	mul	a5, a5, a4
.Ltmp118:
	#DEBUG_VALUE: kernel_vector_add_1D_grid_2D_tile_groups<int, int, int>:start <- $x15
	.loc	1 93 30                 # kernel/include/vector_add.hpp:93:30
	add	a6, a5, a4
.Ltmp119:
	#DEBUG_VALUE: kernel_vector_add_1D_grid_2D_tile_groups<int, int, int>:end <- $x16
	.loc	1 100 26                # kernel/include/vector_add.hpp:100:26
	add	t0, a5, a3
.Ltmp120:
	#DEBUG_VALUE: iter_x <- $x5
	#DEBUG_VALUE: kernel_vector_add_1D_grid_2D_tile_groups<int, int, int>:C <- $x12
	#DEBUG_VALUE: kernel_vector_add_1D_grid_2D_tile_groups<int, int, int>:B <- $x11
	#DEBUG_VALUE: kernel_vector_add_1D_grid_2D_tile_groups<int, int, int>:A <- $x10
	.loc	1 100 2 is_stmt 0       # kernel/include/vector_add.hpp:100:2
	bgeu	t0, a6, .LBB2_7
.Ltmp121:
# %bb.1:                                # %for.body.preheader
	#DEBUG_VALUE: iter_x <- $x5
	#DEBUG_VALUE: kernel_vector_add_1D_grid_2D_tile_groups<int, int, int>:end <- $x16
	#DEBUG_VALUE: kernel_vector_add_1D_grid_2D_tile_groups<int, int, int>:start <- $x15
	#DEBUG_VALUE: kernel_vector_add_1D_grid_2D_tile_groups<int, int, int>:block_size_x <- $x14
	#DEBUG_VALUE: kernel_vector_add_1D_grid_2D_tile_groups<int, int, int>:C <- $x12
	#DEBUG_VALUE: kernel_vector_add_1D_grid_2D_tile_groups<int, int, int>:B <- $x11
	#DEBUG_VALUE: kernel_vector_add_1D_grid_2D_tile_groups<int, int, int>:A <- $x10
	sub	a5, a4, a3
.Ltmp122:
	not	a3, a3
	andi	t1, a5, 7
	add	a7, a3, a4
	beqz	t1, .LBB2_4
.Ltmp123:
# %bb.2:                                # %for.body.prol.preheader
	#DEBUG_VALUE: iter_x <- $x5
	#DEBUG_VALUE: kernel_vector_add_1D_grid_2D_tile_groups<int, int, int>:end <- $x16
	#DEBUG_VALUE: kernel_vector_add_1D_grid_2D_tile_groups<int, int, int>:block_size_x <- $x14
	#DEBUG_VALUE: kernel_vector_add_1D_grid_2D_tile_groups<int, int, int>:C <- $x12
	#DEBUG_VALUE: kernel_vector_add_1D_grid_2D_tile_groups<int, int, int>:B <- $x11
	#DEBUG_VALUE: kernel_vector_add_1D_grid_2D_tile_groups<int, int, int>:A <- $x10
	slli	a3, t0, 2
	add	t3, a2, a3
	add	a5, a1, a3
	add	a3, a0, a3
.Ltmp124:
.LBB2_3:                                # %for.body.prol
                                        # =>This Inner Loop Header: Depth=1
	#DEBUG_VALUE: iter_x <- $x5
	#DEBUG_VALUE: kernel_vector_add_1D_grid_2D_tile_groups<int, int, int>:end <- $x16
	#DEBUG_VALUE: kernel_vector_add_1D_grid_2D_tile_groups<int, int, int>:C <- $x12
	#DEBUG_VALUE: kernel_vector_add_1D_grid_2D_tile_groups<int, int, int>:B <- $x11
	#DEBUG_VALUE: kernel_vector_add_1D_grid_2D_tile_groups<int, int, int>:A <- $x10
	#DEBUG_VALUE: iter_x <- $x5
	.loc	1 101 29 is_stmt 1      # kernel/include/vector_add.hpp:101:29
	lw	t2, 0(a3)
	.loc	1 101 41 is_stmt 0      # kernel/include/vector_add.hpp:101:41
	lw	a4, 0(a5)
	.loc	1 101 39                # kernel/include/vector_add.hpp:101:39
	add	a4, a4, t2
	.loc	1 101 27                # kernel/include/vector_add.hpp:101:27
	sw	a4, 0(t3)
.Ltmp125:
	.loc	1 100 59 is_stmt 1      # kernel/include/vector_add.hpp:100:59
	addi	t0, t0, 1
.Ltmp126:
	#DEBUG_VALUE: iter_x <- $x5
	.loc	1 100 2 is_stmt 0       # kernel/include/vector_add.hpp:100:2
	addi	t1, t1, -1
	addi	t3, t3, 4
	addi	a5, a5, 4
	addi	a3, a3, 4
	bnez	t1, .LBB2_3
.Ltmp127:
.LBB2_4:                                # %for.body.prol.loopexit
	#DEBUG_VALUE: iter_x <- $x5
	#DEBUG_VALUE: kernel_vector_add_1D_grid_2D_tile_groups<int, int, int>:end <- $x16
	#DEBUG_VALUE: kernel_vector_add_1D_grid_2D_tile_groups<int, int, int>:C <- $x12
	#DEBUG_VALUE: kernel_vector_add_1D_grid_2D_tile_groups<int, int, int>:B <- $x11
	#DEBUG_VALUE: kernel_vector_add_1D_grid_2D_tile_groups<int, int, int>:A <- $x10
	.loc	1 0 2                   # kernel/include/vector_add.hpp:0:2
	addi	a3, zero, 7
	.loc	1 100 2                 # kernel/include/vector_add.hpp:100:2
	bltu	a7, a3, .LBB2_7
.Ltmp128:
# %bb.5:                                # %for.body.preheader1
	#DEBUG_VALUE: iter_x <- $x5
	#DEBUG_VALUE: kernel_vector_add_1D_grid_2D_tile_groups<int, int, int>:end <- $x16
	#DEBUG_VALUE: kernel_vector_add_1D_grid_2D_tile_groups<int, int, int>:C <- $x12
	#DEBUG_VALUE: kernel_vector_add_1D_grid_2D_tile_groups<int, int, int>:B <- $x11
	#DEBUG_VALUE: kernel_vector_add_1D_grid_2D_tile_groups<int, int, int>:A <- $x10
	sub	a3, a6, t0
	slli	a4, t0, 2
	addi	a4, a4, 16
	add	a2, a2, a4
.Ltmp129:
	add	a1, a1, a4
.Ltmp130:
	add	a0, a0, a4
.Ltmp131:
.LBB2_6:                                # %for.body
                                        # =>This Inner Loop Header: Depth=1
	#DEBUG_VALUE: iter_x <- undef
	.loc	1 101 29 is_stmt 1      # kernel/include/vector_add.hpp:101:29
	lw	a6, -16(a0)
	.loc	1 101 41 is_stmt 0      # kernel/include/vector_add.hpp:101:41
	lw	a7, -16(a1)
	.loc	1 101 29                # kernel/include/vector_add.hpp:101:29
	lw	t0, -12(a0)
	.loc	1 101 41                # kernel/include/vector_add.hpp:101:41
	lw	a5, -12(a1)
	.loc	1 101 39                # kernel/include/vector_add.hpp:101:39
	add	a4, a7, a6
	.loc	1 101 27                # kernel/include/vector_add.hpp:101:27
	sw	a4, -16(a2)
	.loc	1 101 39                # kernel/include/vector_add.hpp:101:39
	add	a6, a5, t0
	.loc	1 101 29                # kernel/include/vector_add.hpp:101:29
	lw	a7, -8(a0)
	.loc	1 101 41                # kernel/include/vector_add.hpp:101:41
	lw	t0, -8(a1)
	.loc	1 101 29                # kernel/include/vector_add.hpp:101:29
	lw	t1, -4(a0)
	.loc	1 101 41                # kernel/include/vector_add.hpp:101:41
	lw	a4, -4(a1)
	.loc	1 101 27                # kernel/include/vector_add.hpp:101:27
	sw	a6, -12(a2)
	.loc	1 101 39                # kernel/include/vector_add.hpp:101:39
	add	a5, t0, a7
	.loc	1 101 27                # kernel/include/vector_add.hpp:101:27
	sw	a5, -8(a2)
	.loc	1 101 39                # kernel/include/vector_add.hpp:101:39
	add	a6, a4, t1
	.loc	1 101 29                # kernel/include/vector_add.hpp:101:29
	lw	a7, 0(a0)
	.loc	1 101 41                # kernel/include/vector_add.hpp:101:41
	lw	t0, 0(a1)
	.loc	1 101 29                # kernel/include/vector_add.hpp:101:29
	lw	t1, 4(a0)
	.loc	1 101 41                # kernel/include/vector_add.hpp:101:41
	lw	a4, 4(a1)
	.loc	1 101 27                # kernel/include/vector_add.hpp:101:27
	sw	a6, -4(a2)
	.loc	1 101 39                # kernel/include/vector_add.hpp:101:39
	add	a5, t0, a7
	.loc	1 101 27                # kernel/include/vector_add.hpp:101:27
	sw	a5, 0(a2)
	.loc	1 101 39                # kernel/include/vector_add.hpp:101:39
	add	a6, a4, t1
	.loc	1 101 29                # kernel/include/vector_add.hpp:101:29
	lw	a7, 8(a0)
	.loc	1 101 41                # kernel/include/vector_add.hpp:101:41
	lw	t0, 8(a1)
	.loc	1 101 29                # kernel/include/vector_add.hpp:101:29
	lw	t1, 12(a0)
	.loc	1 101 41                # kernel/include/vector_add.hpp:101:41
	lw	a4, 12(a1)
	.loc	1 101 27                # kernel/include/vector_add.hpp:101:27
	sw	a6, 4(a2)
	.loc	1 101 39                # kernel/include/vector_add.hpp:101:39
	add	a5, t0, a7
	.loc	1 101 27                # kernel/include/vector_add.hpp:101:27
	sw	a5, 8(a2)
	.loc	1 101 39                # kernel/include/vector_add.hpp:101:39
	add	a4, a4, t1
	.loc	1 101 27                # kernel/include/vector_add.hpp:101:27
	sw	a4, 12(a2)
.Ltmp132:
	#DEBUG_VALUE: iter_x <- [DW_OP_plus_uconst 8, DW_OP_stack_value] undef
	.loc	1 100 45 is_stmt 1      # kernel/include/vector_add.hpp:100:45
	addi	a3, a3, -8
	addi	a2, a2, 32
	addi	a1, a1, 32
	addi	a0, a0, 32
.Ltmp133:
	.loc	1 100 2 is_stmt 0       # kernel/include/vector_add.hpp:100:2
	bnez	a3, .LBB2_6
.Ltmp134:
.LBB2_7:                                # %for.cond.cleanup
	.loc	1 104 2 is_stmt 1       # kernel/include/vector_add.hpp:104:2
	lui	a0, %hi(r_barrier)
	addi	a0, a0, %lo(r_barrier)
	lui	a1, %hi(c_barrier)
	addi	a1, a1, %lo(c_barrier)
	call	_Z22bsg_tile_group_barrierP17_bsg_row_barrier_P17_bsg_col_barrier_
.Ltmp135:
	.loc	1 106 9                 # kernel/include/vector_add.hpp:106:9
	mv	a0, zero
	lw	ra, 12(sp)
	addi	sp, sp, 16
	ret
.Ltmp136:
.Lfunc_end2:
	.size	_Z40kernel_vector_add_1D_grid_2D_tile_groupsIiiiEiPT_PT0_PT1_jj, .Lfunc_end2-_Z40kernel_vector_add_1D_grid_2D_tile_groupsIiiiEiPT_PT0_PT1_jj
	.cfi_endproc
                                        # -- End function
	.text
	.globl	kernel_vector_add_int16 # -- Begin function kernel_vector_add_int16
	.p2align	2
	.type	kernel_vector_add_int16,@function
kernel_vector_add_int16:                # @kernel_vector_add_int16
.Lfunc_begin3:
	.loc	3 51 0                  # kernel/v3/kernel.cpp:51:0
	.cfi_startproc
# %bb.0:                                # %entry
	#DEBUG_VALUE: kernel_vector_add_int16:A <- $x10
	#DEBUG_VALUE: kernel_vector_add_int16:B <- $x11
	#DEBUG_VALUE: kernel_vector_add_int16:C <- $x12
	#DEBUG_VALUE: kernel_vector_add_int16:WIDTH <- $x13
	#DEBUG_VALUE: kernel_vector_add_int16:block_size_y <- $x14
	#DEBUG_VALUE: kernel_vector_add_int16:block_size_x <- $x15
	#DEBUG_VALUE: kernel_vector_add_int16:tag <- $x16
	#DEBUG_VALUE: kernel_vector_add_int16:iter <- $x17
	addi	sp, sp, -64
	.cfi_def_cfa_offset 64
.Ltmp137:
	.loc	3 52 17 prologue_end    # kernel/v3/kernel.cpp:52:17
	sw	ra, 60(sp)
	sw	s0, 56(sp)
	sw	s1, 52(sp)
	sw	s2, 48(sp)
	sw	s3, 44(sp)
	sw	s4, 40(sp)
	sw	s5, 36(sp)
	sw	s6, 32(sp)
	sw	s7, 28(sp)
	sw	s8, 24(sp)
	sw	s9, 20(sp)
	sw	s10, 16(sp)
	sw	s11, 12(sp)
	.cfi_offset ra, -4
	.cfi_offset s0, -8
	.cfi_offset s1, -12
	.cfi_offset s2, -16
	.cfi_offset s3, -20
	.cfi_offset s4, -24
	.cfi_offset s5, -28
	.cfi_offset s6, -32
	.cfi_offset s7, -36
	.cfi_offset s8, -40
	.cfi_offset s9, -44
	.cfi_offset s10, -48
	.cfi_offset s11, -52
	lui	t2, %hi(__bsg_grp_org_y)
	lw	a4, %lo(__bsg_grp_org_y)(t2)
.Ltmp138:
	lui	t3, %hi(__bsg_y)
	lw	s0, %lo(__bsg_y)(t3)
	lui	s1, 64
	addi	s1, s1, -16
	add	t0, s0, a4
	lui	a4, %hi(__bsg_grp_org_x)
	lw	t1, %lo(__bsg_grp_org_x)(a4)
	lui	a4, %hi(__bsg_x)
	lw	t4, %lo(__bsg_x)(a4)
	slli	s0, t0, 24
	lui	a4, 258048
	and	t0, s0, a4
	add	a4, t4, t1
	lui	s0, %hi(__bsg_tile_group_id)
	lw	t1, %lo(__bsg_tile_group_id)(s0)
	slli	a4, a4, 18
	lui	s0, 4032
	and	a4, a4, s0
	slli	s0, t1, 4
	and	s0, s0, s1
	or	a4, t0, a4
	or	a4, a4, s0
	lui	s0, 524288
	or	a4, a4, s0
.Ltmp139:
	#DEBUG_VALUE: val <- $x14
	.loc	3 0 17 is_stmt 0        # kernel/v3/kernel.cpp:0:17
	lui	s0, 266241
.Ltmp140:
	#DEBUG_VALUE: ptr <- undef
	.loc	3 52 17                 # kernel/v3/kernel.cpp:52:17
	sw	a4, -756(s0)
.Ltmp141:
	#DEBUG_VALUE: kernel_vector_add_int16:rc <- undef
	.loc	3 0 0                   # kernel/v3/kernel.cpp:0:0
	lw	t0, %lo(__bsg_grp_org_y)(t2)
	lw	a4, %lo(__bsg_y)(t3)
.Ltmp142:
	#DEBUG_VALUE: kernel_vector_add_int16:iter <- $x17
	#DEBUG_VALUE: kernel_vector_add_int16:tag <- $x16
	sw	a5, 8(sp)
.Ltmp143:
	#DEBUG_VALUE: kernel_vector_add_int16:block_size_x <- [DW_OP_plus_uconst 8] [$x2+0]
	sw	a3, 4(sp)
.Ltmp144:
	#DEBUG_VALUE: kernel_vector_add_int16:WIDTH <- [DW_OP_plus_uconst 4] [$x2+0]
	sw	a2, 0(sp)
.Ltmp145:
	#DEBUG_VALUE: kernel_vector_add_int16:C <- [$x2+0]
	mv	s5, a1
.Ltmp146:
	#DEBUG_VALUE: kernel_vector_add_int16:B <- $x21
	mv	s10, a0
.Ltmp147:
	#DEBUG_VALUE: kernel_vector_add_int16:A <- $x26
	add	a0, a4, t0
	slli	a1, a0, 24
.Ltmp148:
	#DEBUG_VALUE: i <- 0
	andi	s8, a6, 15
.Ltmp149:
	.loc	3 54 17 is_stmt 1       # kernel/v3/kernel.cpp:54:17
	addi	s9, a7, 1
.Ltmp150:
	.loc	3 52 17                 # kernel/v3/kernel.cpp:52:17
	lui	s11, %hi(__bsg_grp_org_x)
	lui	s6, %hi(__bsg_x)
	lui	s7, 258048
	lui	s2, %hi(__bsg_tile_group_id)
	lui	s3, 4032
	lui	s4, 266241
	lui	s0, %hi(__bsg_y)
.Ltmp151:
.LBB3_1:                                # %do.body11
                                        # =>This Inner Loop Header: Depth=1
	#DEBUG_VALUE: i <- 0
	#DEBUG_VALUE: kernel_vector_add_int16:A <- $x26
	#DEBUG_VALUE: kernel_vector_add_int16:B <- $x21
	#DEBUG_VALUE: kernel_vector_add_int16:C <- [$x2+0]
	#DEBUG_VALUE: kernel_vector_add_int16:WIDTH <- [DW_OP_plus_uconst 4] [$x2+0]
	#DEBUG_VALUE: kernel_vector_add_int16:block_size_x <- [DW_OP_plus_uconst 8] [$x2+0]
	#DEBUG_VALUE: i <- undef
	.loc	3 55 25                 # kernel/v3/kernel.cpp:55:25
	lw	a0, %lo(__bsg_grp_org_x)(s11)
	lw	a2, %lo(__bsg_x)(s6)
	and	a1, a1, s7
	lw	a3, %lo(__bsg_tile_group_id)(s2)
	add	a0, a2, a0
	slli	a0, a0, 18
	and	a0, a0, s3
	slli	a2, a3, 4
	and	a2, a2, s1
	or	a1, a1, s8
	or	a0, a1, a0
	or	a0, a0, a2
.Ltmp152:
	#DEBUG_VALUE: ptr <- undef
	#DEBUG_VALUE: val <- $x10
	.loc	3 55 25 is_stmt 0       # kernel/v3/kernel.cpp:55:25
	sw	a0, -756(s4)
.Ltmp153:
	.loc	3 56 30 is_stmt 1       # kernel/v3/kernel.cpp:56:30
	mv	a0, s10
.Ltmp154:
	mv	a1, s5
	lw	a2, 0(sp)
	lw	a3, 4(sp)
	lw	a4, 8(sp)
	call	_Z40kernel_vector_add_1D_grid_2D_tile_groupsIsssEiPT_PT0_PT1_jj
.Ltmp155:
	.loc	3 52 17                 # kernel/v3/kernel.cpp:52:17
	lui	a5, %hi(__bsg_grp_org_y)
.Ltmp156:
	.loc	3 58 25                 # kernel/v3/kernel.cpp:58:25
	lw	a1, %lo(__bsg_grp_org_y)(a5)
	lw	a2, %lo(__bsg_y)(s0)
	lw	a3, %lo(__bsg_grp_org_x)(s11)
	lw	a4, %lo(__bsg_x)(s6)
	add	a1, a2, a1
	slli	a1, a1, 24
	add	a2, a4, a3
	lw	a3, %lo(__bsg_tile_group_id)(s2)
	and	a1, a1, s7
	slli	a2, a2, 18
	and	a2, a2, s3
	slli	a3, a3, 4
	and	a3, a3, s1
	or	a1, s8, a1
	or	a1, a1, a2
	or	a1, a1, a3
	lui	a2, 262144
	or	a1, a1, a2
.Ltmp157:
	#DEBUG_VALUE: ptr <- undef
	#DEBUG_VALUE: val <- $x11
	.loc	3 58 25 is_stmt 0       # kernel/v3/kernel.cpp:58:25
	sw	a1, -756(s4)
.Ltmp158:
	#DEBUG_VALUE: i <- [DW_OP_plus_uconst 1, DW_OP_stack_value] undef
	.loc	3 0 0                   # kernel/v3/kernel.cpp:0:0
	lw	a1, %lo(__bsg_grp_org_y)(a5)
.Ltmp159:
	lw	a2, %lo(__bsg_y)(s0)
.Ltmp160:
	#DEBUG_VALUE: kernel_vector_add_int16:rc <- $x10
	add	a1, a2, a1
.Ltmp161:
	.loc	3 54 34 is_stmt 1       # kernel/v3/kernel.cpp:54:34
	addi	s9, s9, -1
.Ltmp162:
	.loc	3 0 0 is_stmt 0         # kernel/v3/kernel.cpp:0:0
	slli	a1, a1, 24
.Ltmp163:
	.loc	3 54 17                 # kernel/v3/kernel.cpp:54:17
	bnez	s9, .LBB3_1
.Ltmp164:
# %bb.2:                                # %for.cond.cleanup
	#DEBUG_VALUE: kernel_vector_add_int16:rc <- $x10
	#DEBUG_VALUE: kernel_vector_add_int16:A <- $x26
	#DEBUG_VALUE: kernel_vector_add_int16:B <- $x21
	#DEBUG_VALUE: kernel_vector_add_int16:C <- [$x2+0]
	#DEBUG_VALUE: kernel_vector_add_int16:WIDTH <- [DW_OP_plus_uconst 4] [$x2+0]
	#DEBUG_VALUE: kernel_vector_add_int16:block_size_x <- [DW_OP_plus_uconst 8] [$x2+0]
	#DEBUG_VALUE: kernel_vector_add_int16:rc <- $x10
	.loc	3 60 17 is_stmt 1       # kernel/v3/kernel.cpp:60:17
	lui	a2, %hi(__bsg_grp_org_x)
	lw	a2, %lo(__bsg_grp_org_x)(a2)
	lui	a3, %hi(__bsg_x)
	lw	a3, %lo(__bsg_x)(a3)
	add	a2, a3, a2
	lui	a3, %hi(__bsg_tile_group_id)
	lw	a3, %lo(__bsg_tile_group_id)(a3)
	slli	a2, a2, 18
	lui	a4, 4032
	and	a2, a2, a4
	slli	a3, a3, 4
	and	a3, a3, s1
	or	a1, a1, a2
	or	a1, a1, a3
	lui	a2, 786432
	or	a1, a1, a2
.Ltmp165:
	#DEBUG_VALUE: val <- $x11
	.loc	3 0 17 is_stmt 0        # kernel/v3/kernel.cpp:0:17
	lui	a2, 266241
.Ltmp166:
	#DEBUG_VALUE: ptr <- undef
	.loc	3 60 17                 # kernel/v3/kernel.cpp:60:17
	sw	a1, -756(a2)
.Ltmp167:
	.loc	3 62 17 is_stmt 1       # kernel/v3/kernel.cpp:62:17
	lw	s11, 12(sp)
	lw	s10, 16(sp)
.Ltmp168:
	lw	s9, 20(sp)
	lw	s8, 24(sp)
	lw	s7, 28(sp)
	lw	s6, 32(sp)
	lw	s5, 36(sp)
.Ltmp169:
	lw	s4, 40(sp)
	lw	s3, 44(sp)
	lw	s2, 48(sp)
	lw	s1, 52(sp)
	lw	s0, 56(sp)
	lw	ra, 60(sp)
	addi	sp, sp, 64
	ret
.Ltmp170:
.Lfunc_end3:
	.size	kernel_vector_add_int16, .Lfunc_end3-kernel_vector_add_int16
	.cfi_endproc
                                        # -- End function
	.section	.text._Z40kernel_vector_add_1D_grid_2D_tile_groupsIsssEiPT_PT0_PT1_jj,"axG",@progbits,_Z40kernel_vector_add_1D_grid_2D_tile_groupsIsssEiPT_PT0_PT1_jj,comdat
	.weak	_Z40kernel_vector_add_1D_grid_2D_tile_groupsIsssEiPT_PT0_PT1_jj # -- Begin function _Z40kernel_vector_add_1D_grid_2D_tile_groupsIsssEiPT_PT0_PT1_jj
	.p2align	2
	.type	_Z40kernel_vector_add_1D_grid_2D_tile_groupsIsssEiPT_PT0_PT1_jj,@function
_Z40kernel_vector_add_1D_grid_2D_tile_groupsIsssEiPT_PT0_PT1_jj: # @_Z40kernel_vector_add_1D_grid_2D_tile_groupsIsssEiPT_PT0_PT1_jj
.Lfunc_begin4:
	.loc	1 87 0                  # kernel/include/vector_add.hpp:87:0
	.cfi_startproc
# %bb.0:                                # %entry
	#DEBUG_VALUE: kernel_vector_add_1D_grid_2D_tile_groups<short, short, short>:A <- $x10
	#DEBUG_VALUE: kernel_vector_add_1D_grid_2D_tile_groups<short, short, short>:B <- $x11
	#DEBUG_VALUE: kernel_vector_add_1D_grid_2D_tile_groups<short, short, short>:C <- $x12
	#DEBUG_VALUE: kernel_vector_add_1D_grid_2D_tile_groups<short, short, short>:WIDTH <- $x13
	#DEBUG_VALUE: kernel_vector_add_1D_grid_2D_tile_groups<short, short, short>:block_size_x <- $x14
	addi	sp, sp, -16
	.cfi_def_cfa_offset 16
.Ltmp171:
	.loc	1 92 26 prologue_end    # kernel/include/vector_add.hpp:92:26
	sw	ra, 12(sp)
	.cfi_offset ra, -4
	lui	a3, %hi(__bsg_tile_group_id_x)
.Ltmp172:
	lw	a5, %lo(__bsg_tile_group_id_x)(a3)
.Ltmp173:
	.loc	1 100 28                # kernel/include/vector_add.hpp:100:28
	lui	a3, %hi(__bsg_id)
	lw	a3, %lo(__bsg_id)(a3)
.Ltmp174:
	#DEBUG_VALUE: kernel_vector_add_1D_grid_2D_tile_groups<short, short, short>:block_size_x <- $x14
	.loc	1 92 48                 # kernel/include/vector_add.hpp:92:48
	mul	a5, a5, a4
.Ltmp175:
	#DEBUG_VALUE: kernel_vector_add_1D_grid_2D_tile_groups<short, short, short>:start <- $x15
	.loc	1 93 30                 # kernel/include/vector_add.hpp:93:30
	add	a6, a5, a4
.Ltmp176:
	#DEBUG_VALUE: kernel_vector_add_1D_grid_2D_tile_groups<short, short, short>:end <- $x16
	.loc	1 100 26                # kernel/include/vector_add.hpp:100:26
	add	t0, a5, a3
.Ltmp177:
	#DEBUG_VALUE: iter_x <- $x5
	#DEBUG_VALUE: kernel_vector_add_1D_grid_2D_tile_groups<short, short, short>:C <- $x12
	#DEBUG_VALUE: kernel_vector_add_1D_grid_2D_tile_groups<short, short, short>:B <- $x11
	#DEBUG_VALUE: kernel_vector_add_1D_grid_2D_tile_groups<short, short, short>:A <- $x10
	.loc	1 100 2 is_stmt 0       # kernel/include/vector_add.hpp:100:2
	bgeu	t0, a6, .LBB4_7
.Ltmp178:
# %bb.1:                                # %for.body.preheader
	#DEBUG_VALUE: iter_x <- $x5
	#DEBUG_VALUE: kernel_vector_add_1D_grid_2D_tile_groups<short, short, short>:end <- $x16
	#DEBUG_VALUE: kernel_vector_add_1D_grid_2D_tile_groups<short, short, short>:start <- $x15
	#DEBUG_VALUE: kernel_vector_add_1D_grid_2D_tile_groups<short, short, short>:block_size_x <- $x14
	#DEBUG_VALUE: kernel_vector_add_1D_grid_2D_tile_groups<short, short, short>:C <- $x12
	#DEBUG_VALUE: kernel_vector_add_1D_grid_2D_tile_groups<short, short, short>:B <- $x11
	#DEBUG_VALUE: kernel_vector_add_1D_grid_2D_tile_groups<short, short, short>:A <- $x10
	sub	a5, a4, a3
.Ltmp179:
	not	a3, a3
	andi	t1, a5, 7
	add	a7, a3, a4
	beqz	t1, .LBB4_4
.Ltmp180:
# %bb.2:                                # %for.body.prol.preheader
	#DEBUG_VALUE: iter_x <- $x5
	#DEBUG_VALUE: kernel_vector_add_1D_grid_2D_tile_groups<short, short, short>:end <- $x16
	#DEBUG_VALUE: kernel_vector_add_1D_grid_2D_tile_groups<short, short, short>:block_size_x <- $x14
	#DEBUG_VALUE: kernel_vector_add_1D_grid_2D_tile_groups<short, short, short>:C <- $x12
	#DEBUG_VALUE: kernel_vector_add_1D_grid_2D_tile_groups<short, short, short>:B <- $x11
	#DEBUG_VALUE: kernel_vector_add_1D_grid_2D_tile_groups<short, short, short>:A <- $x10
	slli	a3, t0, 1
	add	t3, a2, a3
	add	a5, a1, a3
	add	a3, a0, a3
.Ltmp181:
.LBB4_3:                                # %for.body.prol
                                        # =>This Inner Loop Header: Depth=1
	#DEBUG_VALUE: iter_x <- $x5
	#DEBUG_VALUE: kernel_vector_add_1D_grid_2D_tile_groups<short, short, short>:end <- $x16
	#DEBUG_VALUE: kernel_vector_add_1D_grid_2D_tile_groups<short, short, short>:C <- $x12
	#DEBUG_VALUE: kernel_vector_add_1D_grid_2D_tile_groups<short, short, short>:B <- $x11
	#DEBUG_VALUE: kernel_vector_add_1D_grid_2D_tile_groups<short, short, short>:A <- $x10
	#DEBUG_VALUE: iter_x <- $x5
	.loc	1 101 29 is_stmt 1      # kernel/include/vector_add.hpp:101:29
	lh	t2, 0(a3)
	.loc	1 101 41 is_stmt 0      # kernel/include/vector_add.hpp:101:41
	lh	a4, 0(a5)
	.loc	1 101 39                # kernel/include/vector_add.hpp:101:39
	add	a4, a4, t2
	.loc	1 101 27                # kernel/include/vector_add.hpp:101:27
	sh	a4, 0(t3)
.Ltmp182:
	.loc	1 100 59 is_stmt 1      # kernel/include/vector_add.hpp:100:59
	addi	t0, t0, 1
.Ltmp183:
	#DEBUG_VALUE: iter_x <- $x5
	.loc	1 100 2 is_stmt 0       # kernel/include/vector_add.hpp:100:2
	addi	t1, t1, -1
	addi	t3, t3, 2
	addi	a5, a5, 2
	addi	a3, a3, 2
	bnez	t1, .LBB4_3
.Ltmp184:
.LBB4_4:                                # %for.body.prol.loopexit
	#DEBUG_VALUE: iter_x <- $x5
	#DEBUG_VALUE: kernel_vector_add_1D_grid_2D_tile_groups<short, short, short>:end <- $x16
	#DEBUG_VALUE: kernel_vector_add_1D_grid_2D_tile_groups<short, short, short>:C <- $x12
	#DEBUG_VALUE: kernel_vector_add_1D_grid_2D_tile_groups<short, short, short>:B <- $x11
	#DEBUG_VALUE: kernel_vector_add_1D_grid_2D_tile_groups<short, short, short>:A <- $x10
	.loc	1 0 2                   # kernel/include/vector_add.hpp:0:2
	addi	a3, zero, 7
	.loc	1 100 2                 # kernel/include/vector_add.hpp:100:2
	bltu	a7, a3, .LBB4_7
.Ltmp185:
# %bb.5:                                # %for.body.preheader1
	#DEBUG_VALUE: iter_x <- $x5
	#DEBUG_VALUE: kernel_vector_add_1D_grid_2D_tile_groups<short, short, short>:end <- $x16
	#DEBUG_VALUE: kernel_vector_add_1D_grid_2D_tile_groups<short, short, short>:C <- $x12
	#DEBUG_VALUE: kernel_vector_add_1D_grid_2D_tile_groups<short, short, short>:B <- $x11
	#DEBUG_VALUE: kernel_vector_add_1D_grid_2D_tile_groups<short, short, short>:A <- $x10
	sub	a3, a6, t0
	slli	a4, t0, 1
	addi	a4, a4, 8
	add	a2, a2, a4
.Ltmp186:
	add	a1, a1, a4
.Ltmp187:
	add	a0, a0, a4
.Ltmp188:
.LBB4_6:                                # %for.body
                                        # =>This Inner Loop Header: Depth=1
	#DEBUG_VALUE: iter_x <- undef
	.loc	1 101 29 is_stmt 1      # kernel/include/vector_add.hpp:101:29
	lh	a6, -8(a0)
	.loc	1 101 41 is_stmt 0      # kernel/include/vector_add.hpp:101:41
	lh	a7, -8(a1)
	.loc	1 101 29                # kernel/include/vector_add.hpp:101:29
	lh	t0, -6(a0)
	.loc	1 101 41                # kernel/include/vector_add.hpp:101:41
	lh	a5, -6(a1)
	.loc	1 101 39                # kernel/include/vector_add.hpp:101:39
	add	a4, a7, a6
	.loc	1 101 27                # kernel/include/vector_add.hpp:101:27
	sh	a4, -8(a2)
	.loc	1 101 39                # kernel/include/vector_add.hpp:101:39
	add	a6, a5, t0
	.loc	1 101 29                # kernel/include/vector_add.hpp:101:29
	lh	a7, -4(a0)
	.loc	1 101 41                # kernel/include/vector_add.hpp:101:41
	lh	t0, -4(a1)
	.loc	1 101 29                # kernel/include/vector_add.hpp:101:29
	lh	t1, -2(a0)
	.loc	1 101 41                # kernel/include/vector_add.hpp:101:41
	lh	a4, -2(a1)
	.loc	1 101 27                # kernel/include/vector_add.hpp:101:27
	sh	a6, -6(a2)
	.loc	1 101 39                # kernel/include/vector_add.hpp:101:39
	add	a5, t0, a7
	.loc	1 101 27                # kernel/include/vector_add.hpp:101:27
	sh	a5, -4(a2)
	.loc	1 101 39                # kernel/include/vector_add.hpp:101:39
	add	a6, a4, t1
	.loc	1 101 29                # kernel/include/vector_add.hpp:101:29
	lh	a7, 0(a0)
	.loc	1 101 41                # kernel/include/vector_add.hpp:101:41
	lh	t0, 0(a1)
	.loc	1 101 29                # kernel/include/vector_add.hpp:101:29
	lh	t1, 2(a0)
	.loc	1 101 41                # kernel/include/vector_add.hpp:101:41
	lh	a4, 2(a1)
	.loc	1 101 27                # kernel/include/vector_add.hpp:101:27
	sh	a6, -2(a2)
	.loc	1 101 39                # kernel/include/vector_add.hpp:101:39
	add	a5, t0, a7
	.loc	1 101 27                # kernel/include/vector_add.hpp:101:27
	sh	a5, 0(a2)
	.loc	1 101 39                # kernel/include/vector_add.hpp:101:39
	add	a6, a4, t1
	.loc	1 101 29                # kernel/include/vector_add.hpp:101:29
	lh	a7, 4(a0)
	.loc	1 101 41                # kernel/include/vector_add.hpp:101:41
	lh	t0, 4(a1)
	.loc	1 101 29                # kernel/include/vector_add.hpp:101:29
	lh	t1, 6(a0)
	.loc	1 101 41                # kernel/include/vector_add.hpp:101:41
	lh	a4, 6(a1)
	.loc	1 101 27                # kernel/include/vector_add.hpp:101:27
	sh	a6, 2(a2)
	.loc	1 101 39                # kernel/include/vector_add.hpp:101:39
	add	a5, t0, a7
	.loc	1 101 27                # kernel/include/vector_add.hpp:101:27
	sh	a5, 4(a2)
	.loc	1 101 39                # kernel/include/vector_add.hpp:101:39
	add	a4, a4, t1
	.loc	1 101 27                # kernel/include/vector_add.hpp:101:27
	sh	a4, 6(a2)
.Ltmp189:
	#DEBUG_VALUE: iter_x <- [DW_OP_plus_uconst 8, DW_OP_stack_value] undef
	.loc	1 100 45 is_stmt 1      # kernel/include/vector_add.hpp:100:45
	addi	a3, a3, -8
	addi	a2, a2, 16
	addi	a1, a1, 16
	addi	a0, a0, 16
.Ltmp190:
	.loc	1 100 2 is_stmt 0       # kernel/include/vector_add.hpp:100:2
	bnez	a3, .LBB4_6
.Ltmp191:
.LBB4_7:                                # %for.cond.cleanup
	.loc	1 104 2 is_stmt 1       # kernel/include/vector_add.hpp:104:2
	lui	a0, %hi(r_barrier)
	addi	a0, a0, %lo(r_barrier)
	lui	a1, %hi(c_barrier)
	addi	a1, a1, %lo(c_barrier)
	call	_Z22bsg_tile_group_barrierP17_bsg_row_barrier_P17_bsg_col_barrier_
.Ltmp192:
	.loc	1 106 9                 # kernel/include/vector_add.hpp:106:9
	mv	a0, zero
	lw	ra, 12(sp)
	addi	sp, sp, 16
	ret
.Ltmp193:
.Lfunc_end4:
	.size	_Z40kernel_vector_add_1D_grid_2D_tile_groupsIsssEiPT_PT0_PT1_jj, .Lfunc_end4-_Z40kernel_vector_add_1D_grid_2D_tile_groupsIsssEiPT_PT0_PT1_jj
	.cfi_endproc
                                        # -- End function
	.text
	.globl	kernel_vector_add_int8  # -- Begin function kernel_vector_add_int8
	.p2align	2
	.type	kernel_vector_add_int8,@function
kernel_vector_add_int8:                 # @kernel_vector_add_int8
.Lfunc_begin5:
	.loc	3 69 0                  # kernel/v3/kernel.cpp:69:0
	.cfi_startproc
# %bb.0:                                # %entry
	#DEBUG_VALUE: kernel_vector_add_int8:A <- $x10
	#DEBUG_VALUE: kernel_vector_add_int8:B <- $x11
	#DEBUG_VALUE: kernel_vector_add_int8:C <- $x12
	#DEBUG_VALUE: kernel_vector_add_int8:WIDTH <- $x13
	#DEBUG_VALUE: kernel_vector_add_int8:block_size_y <- $x14
	#DEBUG_VALUE: kernel_vector_add_int8:block_size_x <- $x15
	#DEBUG_VALUE: kernel_vector_add_int8:tag <- $x16
	#DEBUG_VALUE: kernel_vector_add_int8:iter <- $x17
	addi	sp, sp, -64
	.cfi_def_cfa_offset 64
.Ltmp194:
	.loc	3 70 17 prologue_end    # kernel/v3/kernel.cpp:70:17
	sw	ra, 60(sp)
	sw	s0, 56(sp)
	sw	s1, 52(sp)
	sw	s2, 48(sp)
	sw	s3, 44(sp)
	sw	s4, 40(sp)
	sw	s5, 36(sp)
	sw	s6, 32(sp)
	sw	s7, 28(sp)
	sw	s8, 24(sp)
	sw	s9, 20(sp)
	sw	s10, 16(sp)
	sw	s11, 12(sp)
	.cfi_offset ra, -4
	.cfi_offset s0, -8
	.cfi_offset s1, -12
	.cfi_offset s2, -16
	.cfi_offset s3, -20
	.cfi_offset s4, -24
	.cfi_offset s5, -28
	.cfi_offset s6, -32
	.cfi_offset s7, -36
	.cfi_offset s8, -40
	.cfi_offset s9, -44
	.cfi_offset s10, -48
	.cfi_offset s11, -52
	lui	t2, %hi(__bsg_grp_org_y)
	lw	a4, %lo(__bsg_grp_org_y)(t2)
.Ltmp195:
	lui	t3, %hi(__bsg_y)
	lw	s0, %lo(__bsg_y)(t3)
	lui	s1, 64
	addi	s1, s1, -16
	add	t0, s0, a4
	lui	a4, %hi(__bsg_grp_org_x)
	lw	t1, %lo(__bsg_grp_org_x)(a4)
	lui	a4, %hi(__bsg_x)
	lw	t4, %lo(__bsg_x)(a4)
	slli	s0, t0, 24
	lui	a4, 258048
	and	t0, s0, a4
	add	a4, t4, t1
	lui	s0, %hi(__bsg_tile_group_id)
	lw	t1, %lo(__bsg_tile_group_id)(s0)
	slli	a4, a4, 18
	lui	s0, 4032
	and	a4, a4, s0
	slli	s0, t1, 4
	and	s0, s0, s1
	or	a4, t0, a4
	or	a4, a4, s0
	lui	s0, 524288
	or	a4, a4, s0
.Ltmp196:
	#DEBUG_VALUE: val <- $x14
	.loc	3 0 17 is_stmt 0        # kernel/v3/kernel.cpp:0:17
	lui	s0, 266241
.Ltmp197:
	#DEBUG_VALUE: ptr <- undef
	.loc	3 70 17                 # kernel/v3/kernel.cpp:70:17
	sw	a4, -756(s0)
.Ltmp198:
	#DEBUG_VALUE: kernel_vector_add_int8:rc <- undef
	.loc	3 0 0                   # kernel/v3/kernel.cpp:0:0
	lw	t0, %lo(__bsg_grp_org_y)(t2)
	lw	a4, %lo(__bsg_y)(t3)
.Ltmp199:
	#DEBUG_VALUE: kernel_vector_add_int8:iter <- $x17
	#DEBUG_VALUE: kernel_vector_add_int8:tag <- $x16
	sw	a5, 8(sp)
.Ltmp200:
	#DEBUG_VALUE: kernel_vector_add_int8:block_size_x <- [DW_OP_plus_uconst 8] [$x2+0]
	sw	a3, 4(sp)
.Ltmp201:
	#DEBUG_VALUE: kernel_vector_add_int8:WIDTH <- [DW_OP_plus_uconst 4] [$x2+0]
	sw	a2, 0(sp)
.Ltmp202:
	#DEBUG_VALUE: kernel_vector_add_int8:C <- [$x2+0]
	mv	s5, a1
.Ltmp203:
	#DEBUG_VALUE: kernel_vector_add_int8:B <- $x21
	mv	s10, a0
.Ltmp204:
	#DEBUG_VALUE: kernel_vector_add_int8:A <- $x26
	add	a0, a4, t0
	slli	a1, a0, 24
.Ltmp205:
	#DEBUG_VALUE: i <- 0
	andi	s8, a6, 15
.Ltmp206:
	.loc	3 72 17 is_stmt 1       # kernel/v3/kernel.cpp:72:17
	addi	s9, a7, 1
.Ltmp207:
	.loc	3 70 17                 # kernel/v3/kernel.cpp:70:17
	lui	s11, %hi(__bsg_grp_org_x)
	lui	s6, %hi(__bsg_x)
	lui	s7, 258048
	lui	s2, %hi(__bsg_tile_group_id)
	lui	s3, 4032
	lui	s4, 266241
	lui	s0, %hi(__bsg_y)
.Ltmp208:
.LBB5_1:                                # %do.body11
                                        # =>This Inner Loop Header: Depth=1
	#DEBUG_VALUE: i <- 0
	#DEBUG_VALUE: kernel_vector_add_int8:A <- $x26
	#DEBUG_VALUE: kernel_vector_add_int8:B <- $x21
	#DEBUG_VALUE: kernel_vector_add_int8:C <- [$x2+0]
	#DEBUG_VALUE: kernel_vector_add_int8:WIDTH <- [DW_OP_plus_uconst 4] [$x2+0]
	#DEBUG_VALUE: kernel_vector_add_int8:block_size_x <- [DW_OP_plus_uconst 8] [$x2+0]
	#DEBUG_VALUE: i <- undef
	.loc	3 73 25                 # kernel/v3/kernel.cpp:73:25
	lw	a0, %lo(__bsg_grp_org_x)(s11)
	lw	a2, %lo(__bsg_x)(s6)
	and	a1, a1, s7
	lw	a3, %lo(__bsg_tile_group_id)(s2)
	add	a0, a2, a0
	slli	a0, a0, 18
	and	a0, a0, s3
	slli	a2, a3, 4
	and	a2, a2, s1
	or	a1, a1, s8
	or	a0, a1, a0
	or	a0, a0, a2
.Ltmp209:
	#DEBUG_VALUE: ptr <- undef
	#DEBUG_VALUE: val <- $x10
	.loc	3 73 25 is_stmt 0       # kernel/v3/kernel.cpp:73:25
	sw	a0, -756(s4)
.Ltmp210:
	.loc	3 74 30 is_stmt 1       # kernel/v3/kernel.cpp:74:30
	mv	a0, s10
.Ltmp211:
	mv	a1, s5
	lw	a2, 0(sp)
	lw	a3, 4(sp)
	lw	a4, 8(sp)
	call	_Z40kernel_vector_add_1D_grid_2D_tile_groupsIaaaEiPT_PT0_PT1_jj
.Ltmp212:
	.loc	3 70 17                 # kernel/v3/kernel.cpp:70:17
	lui	a5, %hi(__bsg_grp_org_y)
.Ltmp213:
	.loc	3 76 25                 # kernel/v3/kernel.cpp:76:25
	lw	a1, %lo(__bsg_grp_org_y)(a5)
	lw	a2, %lo(__bsg_y)(s0)
	lw	a3, %lo(__bsg_grp_org_x)(s11)
	lw	a4, %lo(__bsg_x)(s6)
	add	a1, a2, a1
	slli	a1, a1, 24
	add	a2, a4, a3
	lw	a3, %lo(__bsg_tile_group_id)(s2)
	and	a1, a1, s7
	slli	a2, a2, 18
	and	a2, a2, s3
	slli	a3, a3, 4
	and	a3, a3, s1
	or	a1, s8, a1
	or	a1, a1, a2
	or	a1, a1, a3
	lui	a2, 262144
	or	a1, a1, a2
.Ltmp214:
	#DEBUG_VALUE: ptr <- undef
	#DEBUG_VALUE: val <- $x11
	.loc	3 76 25 is_stmt 0       # kernel/v3/kernel.cpp:76:25
	sw	a1, -756(s4)
.Ltmp215:
	#DEBUG_VALUE: i <- [DW_OP_plus_uconst 1, DW_OP_stack_value] undef
	.loc	3 0 0                   # kernel/v3/kernel.cpp:0:0
	lw	a1, %lo(__bsg_grp_org_y)(a5)
.Ltmp216:
	lw	a2, %lo(__bsg_y)(s0)
.Ltmp217:
	#DEBUG_VALUE: kernel_vector_add_int8:rc <- $x10
	add	a1, a2, a1
.Ltmp218:
	.loc	3 72 34 is_stmt 1       # kernel/v3/kernel.cpp:72:34
	addi	s9, s9, -1
.Ltmp219:
	.loc	3 0 0 is_stmt 0         # kernel/v3/kernel.cpp:0:0
	slli	a1, a1, 24
.Ltmp220:
	.loc	3 72 17                 # kernel/v3/kernel.cpp:72:17
	bnez	s9, .LBB5_1
.Ltmp221:
# %bb.2:                                # %for.cond.cleanup
	#DEBUG_VALUE: kernel_vector_add_int8:rc <- $x10
	#DEBUG_VALUE: kernel_vector_add_int8:A <- $x26
	#DEBUG_VALUE: kernel_vector_add_int8:B <- $x21
	#DEBUG_VALUE: kernel_vector_add_int8:C <- [$x2+0]
	#DEBUG_VALUE: kernel_vector_add_int8:WIDTH <- [DW_OP_plus_uconst 4] [$x2+0]
	#DEBUG_VALUE: kernel_vector_add_int8:block_size_x <- [DW_OP_plus_uconst 8] [$x2+0]
	#DEBUG_VALUE: kernel_vector_add_int8:rc <- $x10
	.loc	3 78 17 is_stmt 1       # kernel/v3/kernel.cpp:78:17
	lui	a2, %hi(__bsg_grp_org_x)
	lw	a2, %lo(__bsg_grp_org_x)(a2)
	lui	a3, %hi(__bsg_x)
	lw	a3, %lo(__bsg_x)(a3)
	add	a2, a3, a2
	lui	a3, %hi(__bsg_tile_group_id)
	lw	a3, %lo(__bsg_tile_group_id)(a3)
	slli	a2, a2, 18
	lui	a4, 4032
	and	a2, a2, a4
	slli	a3, a3, 4
	and	a3, a3, s1
	or	a1, a1, a2
	or	a1, a1, a3
	lui	a2, 786432
	or	a1, a1, a2
.Ltmp222:
	#DEBUG_VALUE: val <- $x11
	.loc	3 0 17 is_stmt 0        # kernel/v3/kernel.cpp:0:17
	lui	a2, 266241
.Ltmp223:
	#DEBUG_VALUE: ptr <- undef
	.loc	3 78 17                 # kernel/v3/kernel.cpp:78:17
	sw	a1, -756(a2)
.Ltmp224:
	.loc	3 80 17 is_stmt 1       # kernel/v3/kernel.cpp:80:17
	lw	s11, 12(sp)
	lw	s10, 16(sp)
.Ltmp225:
	lw	s9, 20(sp)
	lw	s8, 24(sp)
	lw	s7, 28(sp)
	lw	s6, 32(sp)
	lw	s5, 36(sp)
.Ltmp226:
	lw	s4, 40(sp)
	lw	s3, 44(sp)
	lw	s2, 48(sp)
	lw	s1, 52(sp)
	lw	s0, 56(sp)
	lw	ra, 60(sp)
	addi	sp, sp, 64
	ret
.Ltmp227:
.Lfunc_end5:
	.size	kernel_vector_add_int8, .Lfunc_end5-kernel_vector_add_int8
	.cfi_endproc
                                        # -- End function
	.section	.text._Z40kernel_vector_add_1D_grid_2D_tile_groupsIaaaEiPT_PT0_PT1_jj,"axG",@progbits,_Z40kernel_vector_add_1D_grid_2D_tile_groupsIaaaEiPT_PT0_PT1_jj,comdat
	.weak	_Z40kernel_vector_add_1D_grid_2D_tile_groupsIaaaEiPT_PT0_PT1_jj # -- Begin function _Z40kernel_vector_add_1D_grid_2D_tile_groupsIaaaEiPT_PT0_PT1_jj
	.p2align	2
	.type	_Z40kernel_vector_add_1D_grid_2D_tile_groupsIaaaEiPT_PT0_PT1_jj,@function
_Z40kernel_vector_add_1D_grid_2D_tile_groupsIaaaEiPT_PT0_PT1_jj: # @_Z40kernel_vector_add_1D_grid_2D_tile_groupsIaaaEiPT_PT0_PT1_jj
.Lfunc_begin6:
	.loc	1 87 0                  # kernel/include/vector_add.hpp:87:0
	.cfi_startproc
# %bb.0:                                # %entry
	#DEBUG_VALUE: kernel_vector_add_1D_grid_2D_tile_groups<signed char, signed char, signed char>:A <- $x10
	#DEBUG_VALUE: kernel_vector_add_1D_grid_2D_tile_groups<signed char, signed char, signed char>:B <- $x11
	#DEBUG_VALUE: kernel_vector_add_1D_grid_2D_tile_groups<signed char, signed char, signed char>:C <- $x12
	#DEBUG_VALUE: kernel_vector_add_1D_grid_2D_tile_groups<signed char, signed char, signed char>:WIDTH <- $x13
	#DEBUG_VALUE: kernel_vector_add_1D_grid_2D_tile_groups<signed char, signed char, signed char>:block_size_x <- $x14
	addi	sp, sp, -16
	.cfi_def_cfa_offset 16
.Ltmp228:
	.loc	1 92 26 prologue_end    # kernel/include/vector_add.hpp:92:26
	sw	ra, 12(sp)
	.cfi_offset ra, -4
	lui	a3, %hi(__bsg_tile_group_id_x)
.Ltmp229:
	lw	a5, %lo(__bsg_tile_group_id_x)(a3)
.Ltmp230:
	.loc	1 100 28                # kernel/include/vector_add.hpp:100:28
	lui	a3, %hi(__bsg_id)
	lw	a3, %lo(__bsg_id)(a3)
.Ltmp231:
	#DEBUG_VALUE: kernel_vector_add_1D_grid_2D_tile_groups<signed char, signed char, signed char>:block_size_x <- $x14
	.loc	1 92 48                 # kernel/include/vector_add.hpp:92:48
	mul	a5, a5, a4
.Ltmp232:
	#DEBUG_VALUE: kernel_vector_add_1D_grid_2D_tile_groups<signed char, signed char, signed char>:start <- $x15
	.loc	1 93 30                 # kernel/include/vector_add.hpp:93:30
	add	a6, a5, a4
.Ltmp233:
	#DEBUG_VALUE: kernel_vector_add_1D_grid_2D_tile_groups<signed char, signed char, signed char>:end <- $x16
	.loc	1 100 26                # kernel/include/vector_add.hpp:100:26
	add	a5, a5, a3
.Ltmp234:
	#DEBUG_VALUE: iter_x <- $x15
	#DEBUG_VALUE: kernel_vector_add_1D_grid_2D_tile_groups<signed char, signed char, signed char>:C <- $x12
	#DEBUG_VALUE: kernel_vector_add_1D_grid_2D_tile_groups<signed char, signed char, signed char>:B <- $x11
	#DEBUG_VALUE: kernel_vector_add_1D_grid_2D_tile_groups<signed char, signed char, signed char>:A <- $x10
	.loc	1 100 2 is_stmt 0       # kernel/include/vector_add.hpp:100:2
	bgeu	a5, a6, .LBB6_6
.Ltmp235:
# %bb.1:                                # %for.body.preheader
	#DEBUG_VALUE: iter_x <- $x15
	#DEBUG_VALUE: kernel_vector_add_1D_grid_2D_tile_groups<signed char, signed char, signed char>:end <- $x16
	#DEBUG_VALUE: kernel_vector_add_1D_grid_2D_tile_groups<signed char, signed char, signed char>:block_size_x <- $x14
	#DEBUG_VALUE: kernel_vector_add_1D_grid_2D_tile_groups<signed char, signed char, signed char>:C <- $x12
	#DEBUG_VALUE: kernel_vector_add_1D_grid_2D_tile_groups<signed char, signed char, signed char>:B <- $x11
	#DEBUG_VALUE: kernel_vector_add_1D_grid_2D_tile_groups<signed char, signed char, signed char>:A <- $x10
	sub	a7, a4, a3
	not	t0, a3
	andi	a3, a7, 7
	add	a7, t0, a4
	beqz	a3, .LBB6_3
.Ltmp236:
.LBB6_2:                                # %for.body.prol
                                        # =>This Inner Loop Header: Depth=1
	#DEBUG_VALUE: iter_x <- $x15
	#DEBUG_VALUE: kernel_vector_add_1D_grid_2D_tile_groups<signed char, signed char, signed char>:end <- $x16
	#DEBUG_VALUE: kernel_vector_add_1D_grid_2D_tile_groups<signed char, signed char, signed char>:C <- $x12
	#DEBUG_VALUE: kernel_vector_add_1D_grid_2D_tile_groups<signed char, signed char, signed char>:B <- $x11
	#DEBUG_VALUE: kernel_vector_add_1D_grid_2D_tile_groups<signed char, signed char, signed char>:A <- $x10
	#DEBUG_VALUE: iter_x <- $x15
	.loc	1 101 29 is_stmt 1      # kernel/include/vector_add.hpp:101:29
	add	a4, a0, a5
	lb	t0, 0(a4)
	.loc	1 101 41 is_stmt 0      # kernel/include/vector_add.hpp:101:41
	add	a4, a1, a5
	lb	a4, 0(a4)
	.loc	1 101 39                # kernel/include/vector_add.hpp:101:39
	add	t0, a4, t0
	.loc	1 101 27                # kernel/include/vector_add.hpp:101:27
	add	a4, a2, a5
	sb	t0, 0(a4)
.Ltmp237:
	.loc	1 100 2 is_stmt 1       # kernel/include/vector_add.hpp:100:2
	addi	a3, a3, -1
.Ltmp238:
	.loc	1 100 59 is_stmt 0      # kernel/include/vector_add.hpp:100:59
	addi	a5, a5, 1
.Ltmp239:
	#DEBUG_VALUE: iter_x <- $x15
	.loc	1 100 2                 # kernel/include/vector_add.hpp:100:2
	bnez	a3, .LBB6_2
.Ltmp240:
.LBB6_3:                                # %for.body.prol.loopexit
	#DEBUG_VALUE: iter_x <- $x15
	#DEBUG_VALUE: kernel_vector_add_1D_grid_2D_tile_groups<signed char, signed char, signed char>:end <- $x16
	#DEBUG_VALUE: kernel_vector_add_1D_grid_2D_tile_groups<signed char, signed char, signed char>:C <- $x12
	#DEBUG_VALUE: kernel_vector_add_1D_grid_2D_tile_groups<signed char, signed char, signed char>:B <- $x11
	#DEBUG_VALUE: kernel_vector_add_1D_grid_2D_tile_groups<signed char, signed char, signed char>:A <- $x10
	.loc	1 0 2                   # kernel/include/vector_add.hpp:0:2
	addi	a3, zero, 7
	.loc	1 100 2                 # kernel/include/vector_add.hpp:100:2
	bltu	a7, a3, .LBB6_6
.Ltmp241:
# %bb.4:                                # %for.body.preheader1
	#DEBUG_VALUE: iter_x <- $x15
	#DEBUG_VALUE: kernel_vector_add_1D_grid_2D_tile_groups<signed char, signed char, signed char>:end <- $x16
	#DEBUG_VALUE: kernel_vector_add_1D_grid_2D_tile_groups<signed char, signed char, signed char>:C <- $x12
	#DEBUG_VALUE: kernel_vector_add_1D_grid_2D_tile_groups<signed char, signed char, signed char>:B <- $x11
	#DEBUG_VALUE: kernel_vector_add_1D_grid_2D_tile_groups<signed char, signed char, signed char>:A <- $x10
	sub	a3, a6, a5
	addi	a4, a5, 3
	add	a2, a2, a4
.Ltmp242:
	add	a1, a1, a4
.Ltmp243:
	add	a0, a0, a4
.Ltmp244:
.LBB6_5:                                # %for.body
                                        # =>This Inner Loop Header: Depth=1
	#DEBUG_VALUE: iter_x <- undef
	.loc	1 101 29 is_stmt 1      # kernel/include/vector_add.hpp:101:29
	lb	a6, -3(a0)
	.loc	1 101 41 is_stmt 0      # kernel/include/vector_add.hpp:101:41
	lb	a7, -3(a1)
	.loc	1 101 29                # kernel/include/vector_add.hpp:101:29
	lb	t0, -2(a0)
	.loc	1 101 41                # kernel/include/vector_add.hpp:101:41
	lb	a5, -2(a1)
	.loc	1 101 39                # kernel/include/vector_add.hpp:101:39
	add	a4, a7, a6
	.loc	1 101 27                # kernel/include/vector_add.hpp:101:27
	sb	a4, -3(a2)
	.loc	1 101 39                # kernel/include/vector_add.hpp:101:39
	add	a6, a5, t0
	.loc	1 101 29                # kernel/include/vector_add.hpp:101:29
	lb	a7, -1(a0)
	.loc	1 101 41                # kernel/include/vector_add.hpp:101:41
	lb	t0, -1(a1)
	.loc	1 101 29                # kernel/include/vector_add.hpp:101:29
	lb	t1, 0(a0)
	.loc	1 101 41                # kernel/include/vector_add.hpp:101:41
	lb	a4, 0(a1)
	.loc	1 101 27                # kernel/include/vector_add.hpp:101:27
	sb	a6, -2(a2)
	.loc	1 101 39                # kernel/include/vector_add.hpp:101:39
	add	a5, t0, a7
	.loc	1 101 27                # kernel/include/vector_add.hpp:101:27
	sb	a5, -1(a2)
	.loc	1 101 39                # kernel/include/vector_add.hpp:101:39
	add	a6, a4, t1
	.loc	1 101 29                # kernel/include/vector_add.hpp:101:29
	lb	a7, 1(a0)
	.loc	1 101 41                # kernel/include/vector_add.hpp:101:41
	lb	t0, 1(a1)
	.loc	1 101 29                # kernel/include/vector_add.hpp:101:29
	lb	t1, 2(a0)
	.loc	1 101 41                # kernel/include/vector_add.hpp:101:41
	lb	a4, 2(a1)
	.loc	1 101 27                # kernel/include/vector_add.hpp:101:27
	sb	a6, 0(a2)
	.loc	1 101 39                # kernel/include/vector_add.hpp:101:39
	add	a5, t0, a7
	.loc	1 101 27                # kernel/include/vector_add.hpp:101:27
	sb	a5, 1(a2)
	.loc	1 101 39                # kernel/include/vector_add.hpp:101:39
	add	a6, a4, t1
	.loc	1 101 29                # kernel/include/vector_add.hpp:101:29
	lb	a7, 3(a0)
	.loc	1 101 41                # kernel/include/vector_add.hpp:101:41
	lb	t0, 3(a1)
	.loc	1 101 29                # kernel/include/vector_add.hpp:101:29
	lb	t1, 4(a0)
	.loc	1 101 41                # kernel/include/vector_add.hpp:101:41
	lb	a4, 4(a1)
	.loc	1 101 27                # kernel/include/vector_add.hpp:101:27
	sb	a6, 2(a2)
	.loc	1 101 39                # kernel/include/vector_add.hpp:101:39
	add	a5, t0, a7
	.loc	1 101 27                # kernel/include/vector_add.hpp:101:27
	sb	a5, 3(a2)
	.loc	1 101 39                # kernel/include/vector_add.hpp:101:39
	add	a4, a4, t1
	.loc	1 101 27                # kernel/include/vector_add.hpp:101:27
	sb	a4, 4(a2)
.Ltmp245:
	#DEBUG_VALUE: iter_x <- [DW_OP_plus_uconst 8, DW_OP_stack_value] undef
	.loc	1 100 45 is_stmt 1      # kernel/include/vector_add.hpp:100:45
	addi	a3, a3, -8
	addi	a2, a2, 8
	addi	a1, a1, 8
	addi	a0, a0, 8
.Ltmp246:
	.loc	1 100 2 is_stmt 0       # kernel/include/vector_add.hpp:100:2
	bnez	a3, .LBB6_5
.Ltmp247:
.LBB6_6:                                # %for.cond.cleanup
	.loc	1 104 2 is_stmt 1       # kernel/include/vector_add.hpp:104:2
	lui	a0, %hi(r_barrier)
	addi	a0, a0, %lo(r_barrier)
	lui	a1, %hi(c_barrier)
	addi	a1, a1, %lo(c_barrier)
	call	_Z22bsg_tile_group_barrierP17_bsg_row_barrier_P17_bsg_col_barrier_
.Ltmp248:
	.loc	1 106 9                 # kernel/include/vector_add.hpp:106:9
	mv	a0, zero
	lw	ra, 12(sp)
	addi	sp, sp, 16
	ret
.Ltmp249:
.Lfunc_end6:
	.size	_Z40kernel_vector_add_1D_grid_2D_tile_groupsIaaaEiPT_PT0_PT1_jj, .Lfunc_end6-_Z40kernel_vector_add_1D_grid_2D_tile_groupsIaaaEiPT_PT0_PT1_jj
	.cfi_endproc
                                        # -- End function
	.text
	.globl	kernel_vector_add_float # -- Begin function kernel_vector_add_float
	.p2align	2
	.type	kernel_vector_add_float,@function
kernel_vector_add_float:                # @kernel_vector_add_float
.Lfunc_begin7:
	.loc	3 87 0                  # kernel/v3/kernel.cpp:87:0
	.cfi_startproc
# %bb.0:                                # %entry
	#DEBUG_VALUE: kernel_vector_add_float:A <- $x10
	#DEBUG_VALUE: kernel_vector_add_float:B <- $x11
	#DEBUG_VALUE: kernel_vector_add_float:C <- $x12
	#DEBUG_VALUE: kernel_vector_add_float:WIDTH <- $x13
	#DEBUG_VALUE: kernel_vector_add_float:block_size_y <- $x14
	#DEBUG_VALUE: kernel_vector_add_float:block_size_x <- $x15
	#DEBUG_VALUE: kernel_vector_add_float:tag <- $x16
	#DEBUG_VALUE: kernel_vector_add_float:iter <- $x17
	addi	sp, sp, -64
	.cfi_def_cfa_offset 64
.Ltmp250:
	.loc	3 88 17 prologue_end    # kernel/v3/kernel.cpp:88:17
	sw	ra, 60(sp)
	sw	s0, 56(sp)
	sw	s1, 52(sp)
	sw	s2, 48(sp)
	sw	s3, 44(sp)
	sw	s4, 40(sp)
	sw	s5, 36(sp)
	sw	s6, 32(sp)
	sw	s7, 28(sp)
	sw	s8, 24(sp)
	sw	s9, 20(sp)
	sw	s10, 16(sp)
	sw	s11, 12(sp)
	.cfi_offset ra, -4
	.cfi_offset s0, -8
	.cfi_offset s1, -12
	.cfi_offset s2, -16
	.cfi_offset s3, -20
	.cfi_offset s4, -24
	.cfi_offset s5, -28
	.cfi_offset s6, -32
	.cfi_offset s7, -36
	.cfi_offset s8, -40
	.cfi_offset s9, -44
	.cfi_offset s10, -48
	.cfi_offset s11, -52
	lui	t2, %hi(__bsg_grp_org_y)
	lw	a4, %lo(__bsg_grp_org_y)(t2)
.Ltmp251:
	lui	t3, %hi(__bsg_y)
	lw	s0, %lo(__bsg_y)(t3)
	lui	s1, 64
	addi	s1, s1, -16
	add	t0, s0, a4
	lui	a4, %hi(__bsg_grp_org_x)
	lw	t1, %lo(__bsg_grp_org_x)(a4)
	lui	a4, %hi(__bsg_x)
	lw	t4, %lo(__bsg_x)(a4)
	slli	s0, t0, 24
	lui	a4, 258048
	and	t0, s0, a4
	add	a4, t4, t1
	lui	s0, %hi(__bsg_tile_group_id)
	lw	t1, %lo(__bsg_tile_group_id)(s0)
	slli	a4, a4, 18
	lui	s0, 4032
	and	a4, a4, s0
	slli	s0, t1, 4
	and	s0, s0, s1
	or	a4, t0, a4
	or	a4, a4, s0
	lui	s0, 524288
	or	a4, a4, s0
.Ltmp252:
	#DEBUG_VALUE: val <- $x14
	.loc	3 0 17 is_stmt 0        # kernel/v3/kernel.cpp:0:17
	lui	s0, 266241
.Ltmp253:
	#DEBUG_VALUE: ptr <- undef
	.loc	3 88 17                 # kernel/v3/kernel.cpp:88:17
	sw	a4, -756(s0)
.Ltmp254:
	#DEBUG_VALUE: kernel_vector_add_float:rc <- undef
	.loc	3 0 0                   # kernel/v3/kernel.cpp:0:0
	lw	t0, %lo(__bsg_grp_org_y)(t2)
	lw	a4, %lo(__bsg_y)(t3)
.Ltmp255:
	#DEBUG_VALUE: kernel_vector_add_float:iter <- $x17
	#DEBUG_VALUE: kernel_vector_add_float:tag <- $x16
	sw	a5, 8(sp)
.Ltmp256:
	#DEBUG_VALUE: kernel_vector_add_float:block_size_x <- [DW_OP_plus_uconst 8] [$x2+0]
	sw	a3, 4(sp)
.Ltmp257:
	#DEBUG_VALUE: kernel_vector_add_float:WIDTH <- [DW_OP_plus_uconst 4] [$x2+0]
	sw	a2, 0(sp)
.Ltmp258:
	#DEBUG_VALUE: kernel_vector_add_float:C <- [$x2+0]
	mv	s5, a1
.Ltmp259:
	#DEBUG_VALUE: kernel_vector_add_float:B <- $x21
	mv	s10, a0
.Ltmp260:
	#DEBUG_VALUE: kernel_vector_add_float:A <- $x26
	add	a0, a4, t0
	slli	a1, a0, 24
.Ltmp261:
	#DEBUG_VALUE: i <- 0
	andi	s8, a6, 15
.Ltmp262:
	.loc	3 90 17 is_stmt 1       # kernel/v3/kernel.cpp:90:17
	addi	s9, a7, 1
.Ltmp263:
	.loc	3 88 17                 # kernel/v3/kernel.cpp:88:17
	lui	s11, %hi(__bsg_grp_org_x)
	lui	s6, %hi(__bsg_x)
	lui	s7, 258048
	lui	s2, %hi(__bsg_tile_group_id)
	lui	s3, 4032
	lui	s4, 266241
	lui	s0, %hi(__bsg_y)
.Ltmp264:
.LBB7_1:                                # %do.body11
                                        # =>This Inner Loop Header: Depth=1
	#DEBUG_VALUE: i <- 0
	#DEBUG_VALUE: kernel_vector_add_float:A <- $x26
	#DEBUG_VALUE: kernel_vector_add_float:B <- $x21
	#DEBUG_VALUE: kernel_vector_add_float:C <- [$x2+0]
	#DEBUG_VALUE: kernel_vector_add_float:WIDTH <- [DW_OP_plus_uconst 4] [$x2+0]
	#DEBUG_VALUE: kernel_vector_add_float:block_size_x <- [DW_OP_plus_uconst 8] [$x2+0]
	#DEBUG_VALUE: i <- undef
	.loc	3 91 25                 # kernel/v3/kernel.cpp:91:25
	lw	a0, %lo(__bsg_grp_org_x)(s11)
	lw	a2, %lo(__bsg_x)(s6)
	and	a1, a1, s7
	lw	a3, %lo(__bsg_tile_group_id)(s2)
	add	a0, a2, a0
	slli	a0, a0, 18
	and	a0, a0, s3
	slli	a2, a3, 4
	and	a2, a2, s1
	or	a1, a1, s8
	or	a0, a1, a0
	or	a0, a0, a2
.Ltmp265:
	#DEBUG_VALUE: ptr <- undef
	#DEBUG_VALUE: val <- $x10
	.loc	3 91 25 is_stmt 0       # kernel/v3/kernel.cpp:91:25
	sw	a0, -756(s4)
.Ltmp266:
	.loc	3 92 30 is_stmt 1       # kernel/v3/kernel.cpp:92:30
	mv	a0, s10
.Ltmp267:
	mv	a1, s5
	lw	a2, 0(sp)
	lw	a3, 4(sp)
	lw	a4, 8(sp)
	call	_Z40kernel_vector_add_1D_grid_2D_tile_groupsIfffEiPT_PT0_PT1_jj
.Ltmp268:
	.loc	3 88 17                 # kernel/v3/kernel.cpp:88:17
	lui	a5, %hi(__bsg_grp_org_y)
.Ltmp269:
	.loc	3 94 25                 # kernel/v3/kernel.cpp:94:25
	lw	a1, %lo(__bsg_grp_org_y)(a5)
	lw	a2, %lo(__bsg_y)(s0)
	lw	a3, %lo(__bsg_grp_org_x)(s11)
	lw	a4, %lo(__bsg_x)(s6)
	add	a1, a2, a1
	slli	a1, a1, 24
	add	a2, a4, a3
	lw	a3, %lo(__bsg_tile_group_id)(s2)
	and	a1, a1, s7
	slli	a2, a2, 18
	and	a2, a2, s3
	slli	a3, a3, 4
	and	a3, a3, s1
	or	a1, s8, a1
	or	a1, a1, a2
	or	a1, a1, a3
	lui	a2, 262144
	or	a1, a1, a2
.Ltmp270:
	#DEBUG_VALUE: ptr <- undef
	#DEBUG_VALUE: val <- $x11
	.loc	3 94 25 is_stmt 0       # kernel/v3/kernel.cpp:94:25
	sw	a1, -756(s4)
.Ltmp271:
	#DEBUG_VALUE: i <- [DW_OP_plus_uconst 1, DW_OP_stack_value] undef
	.loc	3 0 0                   # kernel/v3/kernel.cpp:0:0
	lw	a1, %lo(__bsg_grp_org_y)(a5)
.Ltmp272:
	lw	a2, %lo(__bsg_y)(s0)
.Ltmp273:
	#DEBUG_VALUE: kernel_vector_add_float:rc <- $x10
	add	a1, a2, a1
.Ltmp274:
	.loc	3 90 34 is_stmt 1       # kernel/v3/kernel.cpp:90:34
	addi	s9, s9, -1
.Ltmp275:
	.loc	3 0 0 is_stmt 0         # kernel/v3/kernel.cpp:0:0
	slli	a1, a1, 24
.Ltmp276:
	.loc	3 90 17                 # kernel/v3/kernel.cpp:90:17
	bnez	s9, .LBB7_1
.Ltmp277:
# %bb.2:                                # %for.cond.cleanup
	#DEBUG_VALUE: kernel_vector_add_float:rc <- $x10
	#DEBUG_VALUE: kernel_vector_add_float:A <- $x26
	#DEBUG_VALUE: kernel_vector_add_float:B <- $x21
	#DEBUG_VALUE: kernel_vector_add_float:C <- [$x2+0]
	#DEBUG_VALUE: kernel_vector_add_float:WIDTH <- [DW_OP_plus_uconst 4] [$x2+0]
	#DEBUG_VALUE: kernel_vector_add_float:block_size_x <- [DW_OP_plus_uconst 8] [$x2+0]
	#DEBUG_VALUE: kernel_vector_add_float:rc <- $x10
	.loc	3 96 17 is_stmt 1       # kernel/v3/kernel.cpp:96:17
	lui	a2, %hi(__bsg_grp_org_x)
	lw	a2, %lo(__bsg_grp_org_x)(a2)
	lui	a3, %hi(__bsg_x)
	lw	a3, %lo(__bsg_x)(a3)
	add	a2, a3, a2
	lui	a3, %hi(__bsg_tile_group_id)
	lw	a3, %lo(__bsg_tile_group_id)(a3)
	slli	a2, a2, 18
	lui	a4, 4032
	and	a2, a2, a4
	slli	a3, a3, 4
	and	a3, a3, s1
	or	a1, a1, a2
	or	a1, a1, a3
	lui	a2, 786432
	or	a1, a1, a2
.Ltmp278:
	#DEBUG_VALUE: val <- $x11
	.loc	3 0 17 is_stmt 0        # kernel/v3/kernel.cpp:0:17
	lui	a2, 266241
.Ltmp279:
	#DEBUG_VALUE: ptr <- undef
	.loc	3 96 17                 # kernel/v3/kernel.cpp:96:17
	sw	a1, -756(a2)
.Ltmp280:
	.loc	3 98 17 is_stmt 1       # kernel/v3/kernel.cpp:98:17
	lw	s11, 12(sp)
	lw	s10, 16(sp)
.Ltmp281:
	lw	s9, 20(sp)
	lw	s8, 24(sp)
	lw	s7, 28(sp)
	lw	s6, 32(sp)
	lw	s5, 36(sp)
.Ltmp282:
	lw	s4, 40(sp)
	lw	s3, 44(sp)
	lw	s2, 48(sp)
	lw	s1, 52(sp)
	lw	s0, 56(sp)
	lw	ra, 60(sp)
	addi	sp, sp, 64
	ret
.Ltmp283:
.Lfunc_end7:
	.size	kernel_vector_add_float, .Lfunc_end7-kernel_vector_add_float
	.cfi_endproc
                                        # -- End function
	.section	.text._Z40kernel_vector_add_1D_grid_2D_tile_groupsIfffEiPT_PT0_PT1_jj,"axG",@progbits,_Z40kernel_vector_add_1D_grid_2D_tile_groupsIfffEiPT_PT0_PT1_jj,comdat
	.weak	_Z40kernel_vector_add_1D_grid_2D_tile_groupsIfffEiPT_PT0_PT1_jj # -- Begin function _Z40kernel_vector_add_1D_grid_2D_tile_groupsIfffEiPT_PT0_PT1_jj
	.p2align	2
	.type	_Z40kernel_vector_add_1D_grid_2D_tile_groupsIfffEiPT_PT0_PT1_jj,@function
_Z40kernel_vector_add_1D_grid_2D_tile_groupsIfffEiPT_PT0_PT1_jj: # @_Z40kernel_vector_add_1D_grid_2D_tile_groupsIfffEiPT_PT0_PT1_jj
.Lfunc_begin8:
	.loc	1 87 0                  # kernel/include/vector_add.hpp:87:0
	.cfi_startproc
# %bb.0:                                # %entry
	#DEBUG_VALUE: kernel_vector_add_1D_grid_2D_tile_groups<float, float, float>:A <- $x10
	#DEBUG_VALUE: kernel_vector_add_1D_grid_2D_tile_groups<float, float, float>:B <- $x11
	#DEBUG_VALUE: kernel_vector_add_1D_grid_2D_tile_groups<float, float, float>:C <- $x12
	#DEBUG_VALUE: kernel_vector_add_1D_grid_2D_tile_groups<float, float, float>:WIDTH <- $x13
	#DEBUG_VALUE: kernel_vector_add_1D_grid_2D_tile_groups<float, float, float>:block_size_x <- $x14
	addi	sp, sp, -16
	.cfi_def_cfa_offset 16
.Ltmp284:
	.loc	1 92 26 prologue_end    # kernel/include/vector_add.hpp:92:26
	sw	ra, 12(sp)
	.cfi_offset ra, -4
	lui	a3, %hi(__bsg_tile_group_id_x)
.Ltmp285:
	lw	a5, %lo(__bsg_tile_group_id_x)(a3)
.Ltmp286:
	.loc	1 100 28                # kernel/include/vector_add.hpp:100:28
	lui	a3, %hi(__bsg_id)
	lw	a3, %lo(__bsg_id)(a3)
.Ltmp287:
	#DEBUG_VALUE: kernel_vector_add_1D_grid_2D_tile_groups<float, float, float>:block_size_x <- $x14
	.loc	1 92 48                 # kernel/include/vector_add.hpp:92:48
	mul	a5, a5, a4
.Ltmp288:
	#DEBUG_VALUE: kernel_vector_add_1D_grid_2D_tile_groups<float, float, float>:start <- $x15
	.loc	1 93 30                 # kernel/include/vector_add.hpp:93:30
	add	a6, a5, a4
.Ltmp289:
	#DEBUG_VALUE: kernel_vector_add_1D_grid_2D_tile_groups<float, float, float>:end <- $x16
	.loc	1 100 26                # kernel/include/vector_add.hpp:100:26
	add	t0, a5, a3
.Ltmp290:
	#DEBUG_VALUE: iter_x <- $x5
	#DEBUG_VALUE: kernel_vector_add_1D_grid_2D_tile_groups<float, float, float>:C <- $x12
	#DEBUG_VALUE: kernel_vector_add_1D_grid_2D_tile_groups<float, float, float>:B <- $x11
	#DEBUG_VALUE: kernel_vector_add_1D_grid_2D_tile_groups<float, float, float>:A <- $x10
	.loc	1 100 2 is_stmt 0       # kernel/include/vector_add.hpp:100:2
	bgeu	t0, a6, .LBB8_7
.Ltmp291:
# %bb.1:                                # %for.body.preheader
	#DEBUG_VALUE: iter_x <- $x5
	#DEBUG_VALUE: kernel_vector_add_1D_grid_2D_tile_groups<float, float, float>:end <- $x16
	#DEBUG_VALUE: kernel_vector_add_1D_grid_2D_tile_groups<float, float, float>:start <- $x15
	#DEBUG_VALUE: kernel_vector_add_1D_grid_2D_tile_groups<float, float, float>:block_size_x <- $x14
	#DEBUG_VALUE: kernel_vector_add_1D_grid_2D_tile_groups<float, float, float>:C <- $x12
	#DEBUG_VALUE: kernel_vector_add_1D_grid_2D_tile_groups<float, float, float>:B <- $x11
	#DEBUG_VALUE: kernel_vector_add_1D_grid_2D_tile_groups<float, float, float>:A <- $x10
	sub	a5, a4, a3
.Ltmp292:
	not	a3, a3
	andi	t1, a5, 7
	add	a7, a3, a4
	beqz	t1, .LBB8_4
.Ltmp293:
# %bb.2:                                # %for.body.prol.preheader
	#DEBUG_VALUE: iter_x <- $x5
	#DEBUG_VALUE: kernel_vector_add_1D_grid_2D_tile_groups<float, float, float>:end <- $x16
	#DEBUG_VALUE: kernel_vector_add_1D_grid_2D_tile_groups<float, float, float>:block_size_x <- $x14
	#DEBUG_VALUE: kernel_vector_add_1D_grid_2D_tile_groups<float, float, float>:C <- $x12
	#DEBUG_VALUE: kernel_vector_add_1D_grid_2D_tile_groups<float, float, float>:B <- $x11
	#DEBUG_VALUE: kernel_vector_add_1D_grid_2D_tile_groups<float, float, float>:A <- $x10
	slli	a3, t0, 2
	add	a4, a2, a3
.Ltmp294:
	add	a5, a1, a3
	add	a3, a0, a3
.Ltmp295:
.LBB8_3:                                # %for.body.prol
                                        # =>This Inner Loop Header: Depth=1
	#DEBUG_VALUE: iter_x <- $x5
	#DEBUG_VALUE: kernel_vector_add_1D_grid_2D_tile_groups<float, float, float>:end <- $x16
	#DEBUG_VALUE: kernel_vector_add_1D_grid_2D_tile_groups<float, float, float>:C <- $x12
	#DEBUG_VALUE: kernel_vector_add_1D_grid_2D_tile_groups<float, float, float>:B <- $x11
	#DEBUG_VALUE: kernel_vector_add_1D_grid_2D_tile_groups<float, float, float>:A <- $x10
	#DEBUG_VALUE: iter_x <- $x5
	.loc	1 101 29 is_stmt 1      # kernel/include/vector_add.hpp:101:29
	flw	ft0, 0(a3)
	.loc	1 101 41 is_stmt 0      # kernel/include/vector_add.hpp:101:41
	flw	ft1, 0(a5)
	.loc	1 101 39                # kernel/include/vector_add.hpp:101:39
	fadd.s	ft0, ft1, ft0
	.loc	1 101 27                # kernel/include/vector_add.hpp:101:27
	fsw	ft0, 0(a4)
.Ltmp296:
	.loc	1 100 59 is_stmt 1      # kernel/include/vector_add.hpp:100:59
	addi	t0, t0, 1
.Ltmp297:
	#DEBUG_VALUE: iter_x <- $x5
	.loc	1 100 2 is_stmt 0       # kernel/include/vector_add.hpp:100:2
	addi	t1, t1, -1
	addi	a4, a4, 4
	addi	a5, a5, 4
	addi	a3, a3, 4
	bnez	t1, .LBB8_3
.Ltmp298:
.LBB8_4:                                # %for.body.prol.loopexit
	#DEBUG_VALUE: iter_x <- $x5
	#DEBUG_VALUE: kernel_vector_add_1D_grid_2D_tile_groups<float, float, float>:end <- $x16
	#DEBUG_VALUE: kernel_vector_add_1D_grid_2D_tile_groups<float, float, float>:C <- $x12
	#DEBUG_VALUE: kernel_vector_add_1D_grid_2D_tile_groups<float, float, float>:B <- $x11
	#DEBUG_VALUE: kernel_vector_add_1D_grid_2D_tile_groups<float, float, float>:A <- $x10
	.loc	1 0 2                   # kernel/include/vector_add.hpp:0:2
	addi	a3, zero, 7
	.loc	1 100 2                 # kernel/include/vector_add.hpp:100:2
	bltu	a7, a3, .LBB8_7
.Ltmp299:
# %bb.5:                                # %for.body.preheader1
	#DEBUG_VALUE: iter_x <- $x5
	#DEBUG_VALUE: kernel_vector_add_1D_grid_2D_tile_groups<float, float, float>:end <- $x16
	#DEBUG_VALUE: kernel_vector_add_1D_grid_2D_tile_groups<float, float, float>:C <- $x12
	#DEBUG_VALUE: kernel_vector_add_1D_grid_2D_tile_groups<float, float, float>:B <- $x11
	#DEBUG_VALUE: kernel_vector_add_1D_grid_2D_tile_groups<float, float, float>:A <- $x10
	sub	a3, a6, t0
	slli	a4, t0, 2
	addi	a4, a4, 16
	add	a2, a2, a4
.Ltmp300:
	add	a1, a1, a4
.Ltmp301:
	add	a0, a0, a4
.Ltmp302:
.LBB8_6:                                # %for.body
                                        # =>This Inner Loop Header: Depth=1
	#DEBUG_VALUE: iter_x <- $x5
	#DEBUG_VALUE: kernel_vector_add_1D_grid_2D_tile_groups<float, float, float>:end <- $x16
	#DEBUG_VALUE: iter_x <- undef
	.loc	1 101 29 is_stmt 1      # kernel/include/vector_add.hpp:101:29
	flw	ft0, -16(a0)
	.loc	1 101 41 is_stmt 0      # kernel/include/vector_add.hpp:101:41
	flw	ft1, -16(a1)
	.loc	1 101 29                # kernel/include/vector_add.hpp:101:29
	flw	ft2, -12(a0)
	.loc	1 101 41                # kernel/include/vector_add.hpp:101:41
	flw	ft3, -12(a1)
	.loc	1 101 39                # kernel/include/vector_add.hpp:101:39
	fadd.s	ft0, ft1, ft0
	.loc	1 101 27                # kernel/include/vector_add.hpp:101:27
	fsw	ft0, -16(a2)
	.loc	1 101 39                # kernel/include/vector_add.hpp:101:39
	fadd.s	ft0, ft3, ft2
	.loc	1 101 29                # kernel/include/vector_add.hpp:101:29
	flw	ft1, -8(a0)
	.loc	1 101 41                # kernel/include/vector_add.hpp:101:41
	flw	ft2, -8(a1)
	.loc	1 101 29                # kernel/include/vector_add.hpp:101:29
	flw	ft3, -4(a0)
	.loc	1 101 41                # kernel/include/vector_add.hpp:101:41
	flw	ft4, -4(a1)
	.loc	1 101 27                # kernel/include/vector_add.hpp:101:27
	fsw	ft0, -12(a2)
	.loc	1 101 39                # kernel/include/vector_add.hpp:101:39
	fadd.s	ft0, ft2, ft1
	.loc	1 101 27                # kernel/include/vector_add.hpp:101:27
	fsw	ft0, -8(a2)
	.loc	1 101 39                # kernel/include/vector_add.hpp:101:39
	fadd.s	ft0, ft4, ft3
	.loc	1 101 29                # kernel/include/vector_add.hpp:101:29
	flw	ft1, 0(a0)
	.loc	1 101 41                # kernel/include/vector_add.hpp:101:41
	flw	ft2, 0(a1)
	.loc	1 101 29                # kernel/include/vector_add.hpp:101:29
	flw	ft3, 4(a0)
	.loc	1 101 41                # kernel/include/vector_add.hpp:101:41
	flw	ft4, 4(a1)
	.loc	1 101 27                # kernel/include/vector_add.hpp:101:27
	fsw	ft0, -4(a2)
	.loc	1 101 39                # kernel/include/vector_add.hpp:101:39
	fadd.s	ft0, ft2, ft1
	.loc	1 101 27                # kernel/include/vector_add.hpp:101:27
	fsw	ft0, 0(a2)
	.loc	1 101 39                # kernel/include/vector_add.hpp:101:39
	fadd.s	ft0, ft4, ft3
	.loc	1 101 29                # kernel/include/vector_add.hpp:101:29
	flw	ft1, 8(a0)
	.loc	1 101 41                # kernel/include/vector_add.hpp:101:41
	flw	ft2, 8(a1)
	.loc	1 101 29                # kernel/include/vector_add.hpp:101:29
	flw	ft3, 12(a0)
	.loc	1 101 41                # kernel/include/vector_add.hpp:101:41
	flw	ft4, 12(a1)
	.loc	1 101 27                # kernel/include/vector_add.hpp:101:27
	fsw	ft0, 4(a2)
	.loc	1 101 39                # kernel/include/vector_add.hpp:101:39
	fadd.s	ft0, ft2, ft1
	.loc	1 101 27                # kernel/include/vector_add.hpp:101:27
	fsw	ft0, 8(a2)
	.loc	1 101 39                # kernel/include/vector_add.hpp:101:39
	fadd.s	ft0, ft4, ft3
	.loc	1 101 27                # kernel/include/vector_add.hpp:101:27
	fsw	ft0, 12(a2)
.Ltmp303:
	#DEBUG_VALUE: iter_x <- [DW_OP_plus_uconst 8, DW_OP_stack_value] undef
	.loc	1 100 45 is_stmt 1      # kernel/include/vector_add.hpp:100:45
	addi	a3, a3, -8
	addi	a2, a2, 32
	addi	a1, a1, 32
	addi	a0, a0, 32
.Ltmp304:
	.loc	1 100 2 is_stmt 0       # kernel/include/vector_add.hpp:100:2
	bnez	a3, .LBB8_6
.Ltmp305:
.LBB8_7:                                # %for.cond.cleanup
	#DEBUG_VALUE: kernel_vector_add_1D_grid_2D_tile_groups<float, float, float>:end <- $x16
	.loc	1 104 2 is_stmt 1       # kernel/include/vector_add.hpp:104:2
	lui	a0, %hi(r_barrier)
	addi	a0, a0, %lo(r_barrier)
	lui	a1, %hi(c_barrier)
	addi	a1, a1, %lo(c_barrier)
	call	_Z22bsg_tile_group_barrierP17_bsg_row_barrier_P17_bsg_col_barrier_
.Ltmp306:
	.loc	1 106 9                 # kernel/include/vector_add.hpp:106:9
	mv	a0, zero
	lw	ra, 12(sp)
	addi	sp, sp, 16
	ret
.Ltmp307:
.Lfunc_end8:
	.size	_Z40kernel_vector_add_1D_grid_2D_tile_groupsIfffEiPT_PT0_PT1_jj, .Lfunc_end8-_Z40kernel_vector_add_1D_grid_2D_tile_groupsIfffEiPT_PT0_PT1_jj
	.cfi_endproc
                                        # -- End function
	.type	r_barrier,@object       # @r_barrier
	.section	.sbss,"aw",@nobits
	.globl	r_barrier
	.p2align	2
r_barrier:
	.zero	8
	.size	r_barrier, 8

	.type	c_barrier,@object       # @c_barrier
	.globl	c_barrier
	.p2align	2
c_barrier:
	.zero	8
	.size	c_barrier, 8

	.file	5 "/mnt/users/spin0/no_backup/eafurst/llvm-project/build/lib/clang/10.0.0/include/stdint.h"
	.section	".note.GNU-stack","",@progbits